(dp0
S'59722'
p1
(dp2
S'lat'
p3
F46.3577938
sS'lng'
p4
F-112.8004918
ssS'77043'
p5
(dp6
g3
F29.8054835
sg4
F-95.5564777
ssS'77041'
p7
(dp8
g3
F29.86738769999999
sg4
F-95.593239
ssS'55345'
p9
(dp10
g3
F44.9188292
sg4
F-93.4902391
ssS'77048'
p11
(dp12
g3
F29.6245936
sg4
F-95.3207069
ssS'81402'
p13
(dp14
g3
F38.4782007
sg4
F-107.8766293
ssS'81403'
p15
(dp16
g3
F38.3020086
sg4
F-107.9057813
ssS'81401'
p17
(dp18
g3
F38.4948194
sg4
F-107.71625
ssS'34712'
p19
(dp20
g3
F28.49
sg4
F-81.75
ssS'34713'
p21
(dp22
g3
F28.54
sg4
F-81.75
ssS'81404'
p23
(dp24
g3
F56.0485084
sg4
F23.1538232
ssS'40505'
p25
(dp26
g3
F38.05414
sg4
F-84.4540213
ssS'83330'
p27
(dp28
g3
F42.9603186
sg4
F-114.729906
ssS'54840'
p29
(dp30
g3
F45.7763905
sg4
F-92.683053
ssS'60177'
p31
(dp32
g3
F41.9965452
sg4
F-88.314212
ssS'31085'
p33
(dp34
g3
F33.4203828
sg4
F-83.624201
ssS'48161'
p35
(dp36
g3
F41.913413
sg4
F-83.4856913
ssS'75709'
p37
(dp38
g3
F32.3208499
sg4
F-95.3834854
ssS'32935'
p39
(dp40
g3
F28.1543081
sg4
F-80.6437906
ssS'96376'
p41
(dp42
g3
S'null'
p43
sS'long'
p44
g43
ssS'12526'
p45
(dp46
g3
g43
sg44
g43
ssS'39063'
p47
(dp48
g3
F33.1013373
sg4
F-89.8692203
ssS'33315'
p49
(dp50
g3
F26.0883682
sg4
F-80.1596041
ssS'92093'
p51
(dp52
g3
F32.88435520000001
sg4
F-117.2338066
ssS'61071'
p53
(dp54
g3
F41.7403976
sg4
F-89.7192132
ssS'49016'
p55
(dp56
g3
F42.319833
sg4
F-85.1877852
ssS'32507'
p57
(dp58
g3
F30.3291747
sg4
F-87.39099569999999
ssS'19154'
p59
(dp60
g3
F40.0913752
sg4
F-74.9851678
ssS'32837'
p61
(dp62
g3
F28.3675319
sg4
F-81.4169093
ssS'92301'
p63
(dp64
g3
F34.6599838
sg4
F-117.5026174
ssS'32449'
p65
(dp66
g3
F30.2807588
sg4
F-85.2515482
ssS'19153'
p67
(dp68
g3
F39.8781725
sg4
F-75.2362381
ssS'32655'
p69
(dp70
g3
F29.83
sg4
F-82.60000000000001
ssS'32656'
p71
(dp72
g3
F29.84299339999999
sg4
F-81.931657
ssS'32653'
p73
(dp74
g3
F29.7429556
sg4
F-82.37773349999999
ssS'42240'
p75
(dp76
g3
F36.8655961
sg4
F-87.4885984
ssS'82902'
p77
(dp78
g3
F41.5823241
sg4
F-109.2545077
ssS'74839'
p79
(dp80
g3
F35.2199272
sg4
F-96.0044121
ssS'97233'
p81
(dp82
g3
F45.5143706
sg4
F-122.5045791
ssS'32713'
p83
(dp84
g3
F28.8821926
sg4
F-81.3179364
ssS'12701'
p85
(dp86
g3
F41.6607514
sg4
F-74.7102958
ssS'51205'
p87
(dp88
g3
F49.046121
sg4
F4.392304
ssS'73066'
p89
(dp90
g3
g43
sg44
g43
ssS'32506'
p91
(dp92
g3
F30.3979028
sg4
F-87.3711477
ssS'17013'
p93
(dp94
g3
F40.2631879
sg4
F-77.17152279999999
ssS'74402'
p95
(dp96
g3
F35.3589534
sg4
F-95.26561989999999
ssS'74403'
p97
(dp98
g3
F35.669371
sg4
F-95.26844369999999
ssS'74017'
p99
(dp100
g3
F36.4143538
sg4
F-95.5827334
ssS'55901'
p101
(dp102
g3
F44.0780552
sg4
F-92.5098914
ssS'73301'
p103
(dp104
g3
F30.2228447
sg4
F-97.74735720000001
ssS'74012'
p105
(dp106
g3
F36.05826630000001
sg4
F-95.7932008
ssS'13602'
p107
(dp108
g3
F44.0492086
sg4
F-75.7894716
ssS'13601'
p109
(dp110
g3
g43
sg44
g43
ssS'81122'
p111
(dp112
g3
F37.3732948
sg4
F-107.5268471
ssS'77447'
p113
(dp114
g3
F30.0528223
sg4
F-95.8353837
ssS'14420'
p115
(dp116
g3
F43.2108851
sg4
F-77.9510209
ssS'93437'
p117
(dp118
g3
F34.7386458
sg4
F-120.5509358
ssS'70005'
p119
(dp120
g3
F30.0028878
sg4
F-90.13545859999999
ssS'48186'
p121
(dp122
g3
F42.295963
sg4
F-83.3735966
ssS'37737'
p123
(dp124
g3
F35.76046
sg4
F-84.1118458
ssS'43778'
p125
(dp126
g3
F39.9977378
sg4
F-81.3729372
ssS'92111'
p127
(dp128
g3
F32.8256427
sg4
F-117.1558867
ssS'32628'
p129
(dp130
g3
F29.6372166
sg4
F-83.1863358
ssS'64701'
p131
(dp132
g3
F38.6357514
sg4
F-94.33596349999999
ssS'98312'
p133
(dp134
g3
F47.540416
sg4
F-122.7705164
ssS'98315'
p135
(dp136
g3
F47.70394779999999
sg4
F-122.7233671
ssS'45244'
p137
(dp138
g3
F39.130723
sg4
F-84.3226488
ssS'21101'
p139
(dp140
g3
F47.408115
sg4
F4.424251
ssS'60131'
p141
(dp142
g3
F41.9348537
sg4
F-87.87952299999999
ssS'73140'
p143
(dp144
g3
F35.4640881
sg4
F-97.3837856
ssS'45011'
p145
(dp146
g3
F39.4296413
sg4
F-84.5117321
ssS'52000'
p147
(dp148
g3
F34.273643
sg4
F-94.85896199999999
ssS'17552'
p149
(dp150
g3
F40.1170277
sg4
F-76.514138
ssS'96271'
p151
(dp152
g3
F50.227731
sg4
F11.0221973
ssS'36203'
p153
(dp154
g3
F33.5807136
sg4
F-85.81790389999999
ssS'19516'
p155
(dp156
g3
F40.4864949
sg4
F-76.0068057
ssS'60506'
p157
(dp158
g3
F41.76919840000001
sg4
F-88.38219889999999
ssS'65473'
p159
(dp160
g3
F37.7259436
sg4
F-92.1253854
ssS'13424'
p161
(dp162
g3
F43.1601811
sg4
F-75.35287790000001
ssS'13421'
p163
(dp164
g3
g43
sg44
g43
ssS'25443'
p165
(dp166
g3
F39.4328016
sg4
F-77.8252923
ssS'76051'
p167
(dp168
g3
F32.9464268
sg4
F-97.0713572
ssS'97335'
p169
(dp170
g3
F44.6341034
sg4
F-122.8908005
ssS'12018'
p171
(dp172
g3
g43
sg44
g43
ssS'85242'
p173
(dp174
g3
F33.2320417
sg4
F-111.6269461
ssS'97330'
p175
(dp176
g3
F44.6385045
sg4
F-123.2929399
ssS'12015'
p177
(dp178
g3
g43
sg44
g43
ssS'80204'
p179
(dp180
g3
F39.7380371
sg4
F-105.0265195
ssS'85323'
p181
(dp182
g3
F33.4334649
sg4
F-112.3278161
ssS'12010'
p183
(dp184
g3
F42.9297842
sg4
F-74.1474846
ssS'97339'
p185
(dp186
g3
F44.5619717
sg4
F-123.2608574
ssS'96734'
p187
(dp188
g3
F21.3930281
sg4
F-157.7496761
ssS'86037'
p189
(dp190
g3
F46.3934489
sg4
F1.087601
ssS'43050'
p191
(dp192
g3
F40.3521894
sg4
F-82.5185837
ssS'98001'
p193
(dp194
g3
F47.3394747
sg4
F-122.2667661
ssS'98002'
p195
(dp196
g3
F47.2945159
sg4
F-122.2192679
ssS'43054'
p197
(dp198
g3
F40.0756871
sg4
F-82.8101975
ssS'43112'
p199
(dp200
g3
F39.8031988
sg4
F-82.7023383
ssS'81623'
p201
(dp202
g3
F39.2165648
sg4
F-107.2429976
ssS'46000'
p203
(dp204
g3
F34.084354
sg4
F-94.971429
ssS'96793'
p205
(dp206
g3
F20.8776194
sg4
F-156.570016
ssS'76131'
p207
(dp208
g3
F32.8959754
sg4
F-97.3624598
ssS'99201'
p209
(dp210
g3
F47.66007159999999
sg4
F-117.4316272
ssS'99202'
p211
(dp212
g3
F47.6568696
sg4
F-117.3719973
ssS'69101'
p213
(dp214
g3
F41.2169959
sg4
F-100.7548851
ssS'20743'
p215
(dp216
g3
F38.8845491
sg4
F-76.88939069999999
ssS'97440'
p217
(dp218
g3
F44.05
sg4
F-123.09
ssS'46268'
p219
(dp220
g3
F39.8998074
sg4
F-86.2361744
ssS'64429'
p221
(dp222
g3
F39.7184481
sg4
F-94.2538452
ssS'65802'
p223
(dp224
g3
F37.1953893
sg4
F-93.3892894
ssS'46544'
p225
(dp226
g3
F41.6367762
sg4
F-86.15482689999999
ssS'97446'
p227
(dp228
g3
F44.2553286
sg4
F-123.0776058
ssS'46793'
p229
(dp230
g3
F41.4329711
sg4
F-85.0025539
ssS'60000'
p231
(dp232
g3
F34.3862048
sg4
F-94.7889558
ssS'60007'
p233
(dp234
g3
F42.01136169999999
sg4
F-88.0020589
ssS'60005'
p235
(dp236
g3
F42.06554029999999
sg4
F-87.9873724
ssS'55455'
p237
(dp238
g3
F44.97415609999999
sg4
F-93.2342
ssS'95122'
p239
(dp240
g3
F37.3304014
sg4
F-121.8391808
ssS'21201'
p241
(dp242
g3
F39.2963369
sg4
F-76.62105389999999
ssS'21207'
p243
(dp244
g3
F39.3252511
sg4
F-76.71633589999999
ssS'93928'
p245
(dp246
g3
F36.0067552
sg4
F-121.2282958
ssS'98823'
p247
(dp248
g3
F47.3446909
sg4
F-119.6109085
ssS'84123'
p249
(dp250
g3
F40.6609843
sg4
F-111.9164779
ssS'84120'
p251
(dp252
g3
F40.6999925
sg4
F-112.0118669
ssS'85024'
p253
(dp254
g3
F33.6893937
sg4
F-112.0416754
ssS'12157'
p255
(dp256
g3
g43
sg44
g43
ssS'55802'
p257
(dp258
g3
F46.7534028
sg4
F-92.0681618
ssS'75801'
p259
(dp260
g3
F31.7588209
sg4
F-95.5407299
ssS'84129'
p261
(dp262
g3
F40.6777307
sg4
F-111.9477777
ssS'74330'
p263
(dp264
g3
F36.4501985
sg4
F-95.26844369999999
ssS'36331'
p265
(dp266
g3
F31.3204544
sg4
F-85.839922
ssS'45118'
p267
(dp268
g3
F39.1825308
sg4
F-83.91089680000002
ssS'43607'
p269
(dp270
g3
F41.6472294
sg4
F-83.59758819999999
ssS'97201'
p271
(dp272
g3
F45.505603
sg4
F-122.6882145
ssS'43605'
p273
(dp274
g3
F41.6517775
sg4
F-83.5016887
ssS'53029'
p275
(dp276
g3
F43.1433873
sg4
F-88.3433623
ssS'42223'
p277
(dp278
g3
F36.61544749999999
sg4
F-87.4901086
ssS'80112'
p279
(dp280
g3
F39.5835785
sg4
F-104.8571368
ssS'97209'
p281
(dp282
g3
g43
sg44
g43
ssS'53024'
p283
(dp284
g3
F43.3298149
sg4
F-87.913867
ssS'49287'
p285
(dp286
g3
F42.014209
sg4
F-84.0695961
ssS'85613'
p287
(dp288
g3
F31.5574017
sg4
F-110.402376
ssS'45843'
p289
(dp290
g3
F40.7976247
sg4
F-83.528342
ssS'45840'
p291
(dp292
g3
F41.0462307
sg4
F-83.6561215
ssS'54494'
p293
(dp294
g3
F44.3837264
sg4
F-89.8172797
ssS'58854'
p295
(dp296
g3
F47.7633248
sg4
F-103.1392835
ssS'45701'
p297
(dp298
g3
F39.32218390000001
sg4
F-82.10606829999999
ssS'53215'
p299
(dp300
g3
F42.991356
sg4
F-87.94328370000001
ssS'44241'
p301
(dp302
g3
F41.2461518
sg4
F-81.3509416
ssS'44240'
p303
(dp304
g3
F41.1263566
sg4
F-81.3509416
ssS'85756'
p305
(dp306
g3
F32.0787726
sg4
F-110.9268201
ssS'54499'
p307
(dp308
g3
F44.7915151
sg4
F-89.18964299999999
ssS'33471'
p309
(dp310
g3
F26.9460458
sg4
F-81.20781640000001
ssS'49267'
p311
(dp312
g3
F41.76693119999999
sg4
F-83.6986568
ssS'52636'
p313
(dp314
g3
F26.9843945
sg4
F43.6087317
ssS'60402'
p315
(dp316
g3
F41.8339435
sg4
F-87.79108910000001
ssS'24125'
p317
(dp318
g3
F45.6896609
sg4
F9.6960941
ssS'17042'
p319
(dp320
g3
F40.2927633
sg4
F-76.3868797
ssS'45648'
p321
(dp322
g3
F38.9247362
sg4
F-83.01465259999999
ssS'48393'
p323
(dp324
g3
F42.5159385
sg4
F-83.53900019999999
ssS'37419'
p325
(dp326
g3
F35.029192
sg4
F-85.4066
ssS'20135'
p327
(dp328
g3
F39.0895811
sg4
F-77.8710285
ssS'36109'
p329
(dp330
g3
F32.3855324
sg4
F-86.2514126
ssS'54950'
p331
(dp332
g3
F44.6391946
sg4
F-88.9222277
ssS'75110'
p333
(dp334
g3
F32.0302037
sg4
F-96.5143087
ssS'13201'
p335
(dp336
g3
F43.045851
sg4
F-76.1523256
ssS'78218'
p337
(dp338
g3
F29.4895776
sg4
F-98.385532
ssS'44647'
p339
(dp340
g3
F40.8018717
sg4
F-81.57061089999999
ssS'83401'
p341
(dp342
g3
F43.5541523
sg4
F-111.8804601
ssS'75050'
p343
(dp344
g3
F32.7811446
sg4
F-97.0175879
ssS'83403'
p345
(dp346
g3
F43.49428
sg4
F-112.026147
ssS'60644'
p347
(dp348
g3
F41.8828292
sg4
F-87.7517295
ssS'18067'
p349
(dp350
g3
F40.711144
sg4
F-75.4927278
ssS'41230'
p351
(dp352
g3
F38.0643297
sg4
F-82.6267345
ssS'33179'
p353
(dp354
g3
F25.9502474
sg4
F-80.1930859
ssS'32220'
p355
(dp356
g3
g43
sg44
g43
ssS'62901'
p357
(dp358
g3
F37.7277751
sg4
F-89.2148386
ssS'90640'
p359
(dp360
g3
F34.0149091
sg4
F-118.1064156
ssS'84059'
p361
(dp362
g3
F40.3
sg4
F-111.7
ssS'84056'
p363
(dp364
g3
F41.1225148
sg4
F-111.9939817
ssS'33172'
p365
(dp366
g3
F25.7858514
sg4
F-80.360297
ssS'84054'
p367
(dp368
g3
F40.8458036
sg4
F-111.9343636
ssS'42120'
p369
(dp370
g3
F36.6697475
sg4
F-86.26664629999999
ssS'84053'
p371
(dp372
g3
F40.4370269
sg4
F-110.0687883
ssS'38111'
p373
(dp374
g3
F35.0938483
sg4
F-89.9346659
ssS'10584'
p375
(dp376
g3
F48.0101621
sg4
F17.1764605
ssS'14624'
p377
(dp378
g3
F43.1206737
sg4
F-77.7337628
ssS'14625'
p379
(dp380
g3
F43.1528841
sg4
F-77.5046101
ssS'14626'
p381
(dp382
g3
F43.2136678
sg4
F-77.7108686
ssS'14620'
p383
(dp384
g3
F43.1301942
sg4
F-77.60205690000001
ssS'14621'
p385
(dp386
g3
F43.1874752
sg4
F-77.60205690000001
ssS'14623'
p387
(dp388
g3
F43.0915814
sg4
F-77.6421577
ssS'15864'
p389
(dp390
g3
F41.1001164
sg4
F-79.1661407
ssS'71120'
p391
(dp392
g3
F32.51
sg4
F-93.75
ssS'44235'
p393
(dp394
g3
F41.0306111
sg4
F-82.10606829999999
ssS'33601'
p395
(dp396
g3
F27.9401015
sg4
F-82.4501944
ssS'41164'
p397
(dp398
g3
F38.3255421
sg4
F-83.12200740000002
ssS'55473'
p399
(dp400
g3
F44.78
sg4
F-93.91
ssS'45385'
p401
(dp402
g3
F39.6779549
sg4
F-83.91089680000002
ssS'63366'
p403
(dp404
g3
F38.8809704
sg4
F-90.73427339999999
ssS'53511'
p405
(dp406
g3
F42.5276281
sg4
F-89.0752499
ssS'27526'
p407
(dp408
g3
F35.5843376
sg4
F-78.8000278
ssS'99744'
p409
(dp410
g3
F64.3049111
sg4
F-149.1892541
ssS'37042'
p411
(dp412
g3
F36.5604306
sg4
F-87.4405786
ssS'59752'
p413
(dp414
g3
F45.8869053
sg4
F-111.5684932
ssS'32454'
p415
(dp416
g3
F43.535953
sg4
F0.649821
ssS'92659'
p417
(dp418
g3
F33.62145390000001
sg4
F-117.9236751
ssS'39746'
p419
(dp420
g3
F33.7419661
sg4
F-88.4403883
ssS'37701'
p421
(dp422
g3
F35.7919891
sg4
F-83.97971729999999
ssS'37040'
p423
(dp424
g3
F36.4722803
sg4
F-87.3612205
ssS'68776'
p425
(dp426
g3
F42.4584705
sg4
F-96.4396888
ssS'83276'
p427
(dp428
g3
F42.7447764
sg4
F-111.5229817
ssS'24017'
p429
(dp430
g3
F37.2893078
sg4
F-79.99759159999999
ssS'80840'
p431
(dp432
g3
F38.994425
sg4
F-104.8571368
ssS'39667'
p433
(dp434
g3
F31.125165
sg4
F-90.11206960000001
ssS'54913'
p435
(dp436
g3
F44.3316981
sg4
F-88.4210006
ssS'33771'
p437
(dp438
g3
F27.9046811
sg4
F-82.7616822
ssS'33679'
p439
(dp440
g3
F27.9499322
sg4
F-82.5099726
ssS'20794'
p441
(dp442
g3
F39.1551963
sg4
F-76.79135579999999
ssS'59853'
p443
(dp444
g3
F48.0879151
sg4
F-115.7897173
ssS'59858'
p445
(dp446
g3
F46.3374643
sg4
F-113.4647823
ssS'94535'
p447
(dp448
g3
F38.27814619999999
sg4
F-121.9302449
ssS'84404'
p449
(dp450
g3
F41.32709029999999
sg4
F-112.1907122
ssS'30328'
p451
(dp452
g3
F33.9253024
sg4
F-84.38574419999999
ssS'18707'
p453
(dp454
g3
F41.1457603
sg4
F-75.8766333
ssS'18705'
p455
(dp456
g3
F41.2737475
sg4
F-75.8359645
ssS'34275'
p457
(dp458
g3
F27.14644
sg4
F-82.4427769
ssS'83355'
p459
(dp460
g3
F42.7294963
sg4
F-114.7503405
ssS'76011'
p461
(dp462
g3
F32.7476492
sg4
F-97.09248989999999
ssS'59927'
p463
(dp464
g3
F48.6066607
sg4
F-114.7567299
ssS'90719'
p465
(dp466
g3
g43
sg44
g43
ssS'84408'
p467
(dp468
g3
F41.1952366
sg4
F-111.9484298
ssS'78664'
p469
(dp470
g3
F30.5041381
sg4
F-97.6602365
ssS'59923'
p471
(dp472
g3
F48.2145326
sg4
F-115.4365207
ssS'94546'
p473
(dp474
g3
F37.7188649
sg4
F-122.0780632
ssS'94538'
p475
(dp476
g3
F37.5042267
sg4
F-121.9643745
ssS'33910'
p477
(dp478
g3
F26.63
sg4
F-81.95
ssS'33913'
p479
(dp480
g3
F26.5321109
sg4
F-81.71305219999999
ssS'33912'
p481
(dp482
g3
F26.5273497
sg4
F-81.8333656
ssS'59102'
p483
(dp484
g3
F45.78888569999999
sg4
F-108.5908853
ssS'18337'
p485
(dp486
g3
F41.3277635
sg4
F-74.8507131
ssS'33917'
p487
(dp488
g3
F26.7270316
sg4
F-81.84429340000001
ssS'59101'
p489
(dp490
g3
F45.5576428
sg4
F-108.3942141
ssS'99735'
p491
(dp492
g3
F51.4711739
sg4
F10.7422562
ssS'76715'
p493
(dp494
g3
F31.60256619999999
sg4
F-97.1066455
ssS'49247'
p495
(dp496
g3
F41.8396194
sg4
F-84.3331694
ssS'99731'
p497
(dp498
g3
F63.9157586
sg4
F-145.6181329
ssS'25064'
p499
(dp500
g3
F38.3727649
sg4
F-81.7458845
ssS'76712'
p501
(dp502
g3
F31.5348439
sg4
F-97.286868
ssS'62249'
p503
(dp504
g3
F38.7573287
sg4
F-89.68162079999999
ssS'60031'
p505
(dp506
g3
F42.3652656
sg4
F-87.92367469999999
ssS'29409'
p507
(dp508
g3
F32.7966838
sg4
F-79.9605375
ssS'34208'
p509
(dp510
g3
F27.5004431
sg4
F-82.50775929999999
ssS'44425'
p511
(dp512
g3
F41.1543313
sg4
F-80.5660657
ssS'30157'
p513
(dp514
g3
F33.8465617
sg4
F-84.87763919999999
ssS'68357'
p515
(dp516
g3
g43
sg44
g43
ssS'30151'
p517
(dp518
g3
F34.3805917
sg4
F-84.3707577
ssS'30152'
p519
(dp520
g3
F34.0041089
sg4
F-84.6583745
ssS'34201'
p521
(dp522
g3
F27.3991505
sg4
F-82.4698603
ssS'34202'
p523
(dp524
g3
F27.4011673
sg4
F-82.3994214
ssS'83617'
p525
(dp526
g3
F43.920401
sg4
F-116.4956539
ssS'83616'
p527
(dp528
g3
F43.7736996
sg4
F-116.3805805
ssS'96818'
p529
(dp530
g3
F21.34853
sg4
F-157.9583246
ssS'67448'
p531
(dp532
g3
F38.6482707
sg4
F-97.4165053
ssS'76692'
p533
(dp534
g3
F31.9404414
sg4
F-97.33005299999999
ssS'30028'
p535
(dp536
g3
F34.2715821
sg4
F-84.1962563
ssS'31699'
p537
(dp538
g3
F30.974643
sg4
F-83.1916937
ssS'23505'
p539
(dp540
g3
F36.9138353
sg4
F-76.2826675
ssS'83128'
p541
(dp542
g3
F43.1108667
sg4
F-110.7846754
ssS'29588'
p543
(dp544
g3
F33.6750835
sg4
F-79.0306032
ssS'26651'
p545
(dp546
g3
F38.3185752
sg4
F-80.8765205
ssS'59401'
p547
(dp548
g3
F47.5154575
sg4
F-111.2803565
ssS'50317'
p549
(dp550
g3
F41.61633010000001
sg4
F-93.5509074
ssS'50310'
p551
(dp552
g3
g43
sg44
g43
ssS'50311'
p553
(dp554
g3
g43
sg44
g43
ssS'50312'
p555
(dp556
g3
g43
sg44
g43
ssS'11040'
p557
(dp558
g3
F40.7466623
sg4
F-73.6830521
ssS'34135'
p559
(dp560
g3
F26.3582748
sg4
F-81.7458845
ssS'27616'
p561
(dp562
g3
F35.8774409
sg4
F-78.5547283
ssS'37912'
p563
(dp564
g3
F36.0091467
sg4
F-83.97971729999999
ssS'33828'
p565
(dp566
g3
F43.4474244
sg4
F-6.0785104
ssS'76083'
p567
(dp568
g3
F49.754712
sg4
F0.588382
ssS'34997'
p569
(dp570
g3
F27.1038963
sg4
F-80.2432839
ssS'81120'
p571
(dp572
g3
F37.1020511
sg4
F-106.2522143
ssS'43512'
p573
(dp574
g3
F41.2650829
sg4
F-84.3962535
ssS'90740'
p575
(dp576
g3
F33.7535679
sg4
F-118.0830047
ssS'27560'
p577
(dp578
g3
F35.8387032
sg4
F-78.8269385
ssS'50701'
p579
(dp580
g3
g43
sg44
g43
ssS'50700'
p581
(dp582
g3
F34.1405118
sg4
F-94.7581451
ssS'66618'
p583
(dp584
g3
F39.1582314
sg4
F-95.7510475
ssS'58704'
p585
(dp586
g3
F48.4157509
sg4
F-101.3386723
ssS'67213'
p587
(dp588
g3
F37.6689444
sg4
F-97.36786239999999
ssS'67212'
p589
(dp590
g3
F37.7071863
sg4
F-97.4327273
ssS'30736'
p591
(dp592
g3
F34.8981727
sg4
F-85.14793639999999
ssS'67210'
p593
(dp594
g3
F37.6346281
sg4
F-97.23831779999999
ssS'34477'
p595
(dp596
g3
F29.19
sg4
F-82.14
ssS'28590'
p597
(dp598
g3
F35.5278135
sg4
F-77.4357739
ssS'31601'
p599
(dp600
g3
F30.7729189
sg4
F-83.3789389
ssS'29102'
p601
(dp602
g3
F33.6530499
sg4
F-80.2098219
ssS'67219'
p603
(dp604
g3
F37.7618735
sg4
F-97.31925419999999
ssS'21237'
p605
(dp606
g3
F39.3403944
sg4
F-76.49679189999999
ssS'92546'
p607
(dp608
g3
g43
sg44
g43
ssS'72704'
p609
(dp610
g3
F36.1197444
sg4
F-94.33596349999999
ssS'72703'
p611
(dp612
g3
F36.1192532
sg4
F-94.0388918
ssS'34652'
p613
(dp614
g3
F28.2356313
sg4
F-82.7455027
ssS'72701'
p615
(dp616
g3
F35.9980929
sg4
F-94.08999109999999
ssS'76544'
p617
(dp618
g3
F31.1524219
sg4
F-97.7960118
ssS'61341'
p619
(dp620
g3
F41.3336504
sg4
F-88.6916315
ssS'77573'
p621
(dp622
g3
F29.4947986
sg4
F-95.09110620000001
ssS'77802'
p623
(dp624
g3
F30.6563999
sg4
F-96.31729059999999
ssS'82110'
p625
(dp626
g3
F46.83999619999999
sg4
F-123.2203021
ssS'67844'
p627
(dp628
g3
F37.4085574
sg4
F-100.2151578
ssS'34698'
p629
(dp630
g3
F28.0339553
sg4
F-82.78324889999999
ssS'23188'
p631
(dp632
g3
F37.3790223
sg4
F-76.7567368
ssS'78257'
p633
(dp634
g3
F29.6610688
sg4
F-98.5830907
ssS'30265'
p635
(dp636
g3
F33.3931572
sg4
F-84.7106567
ssS'85233'
p637
(dp638
g3
F33.3519301
sg4
F-111.8210866
ssS'66861'
p639
(dp640
g3
F38.39918249999999
sg4
F-97.0498442
ssS'83707'
p641
(dp642
g3
F43.6136643
sg4
F-116.2173488
ssS'50000'
p643
(dp644
g3
F34.0699976
sg4
F-94.66044149999999
ssS'26624'
p645
(dp646
g3
F38.7318936
sg4
F-80.8322428
ssS'51579'
p647
(dp648
g3
F41.718526
sg4
F-95.70892409999999
ssS'74401'
p649
(dp650
g3
F35.7490769
sg4
F-95.435853
ssS'59322'
p651
(dp652
g3
F47.048489
sg4
F-106.7106962
ssS'59323'
p653
(dp654
g3
F45.8553744
sg4
F-106.6303366
ssS'55117'
p655
(dp656
g3
F44.9908014
sg4
F-93.09620989999999
ssS'12212'
p657
(dp658
g3
F42.7126624
sg4
F-73.7760119
ssS'50008'
p659
(dp660
g3
g43
sg44
g43
ssS'50009'
p661
(dp662
g3
F41.6393289
sg4
F-93.4498346
ssS'12401'
p663
(dp664
g3
F41.9511782
sg4
F-74.006509
ssS'12065'
p665
(dp666
g3
g43
sg44
g43
ssS'72956'
p667
(dp668
g3
F35.4662541
sg4
F-94.33596349999999
ssS'76224'
p669
(dp670
g3
F49.649959
sg4
F0.3252979
ssS'66506'
p671
(dp672
g3
F39.1998042
sg4
F-96.581008
ssS'79543'
p673
(dp674
g3
F32.6914531
sg4
F-100.3947116
ssS'28217'
p675
(dp676
g3
F35.1743999
sg4
F-80.9041817
ssS'56011'
p677
(dp678
g3
F44.6186408
sg4
F-93.80448310000001
ssS'38351'
p679
(dp680
g3
F35.6648364
sg4
F-88.4210006
ssS'28210'
p681
(dp682
g3
F35.1274285
sg4
F-80.8599193
ssS'28211'
p683
(dp684
g3
F35.1660032
sg4
F-80.7934798
ssS'35201'
p685
(dp686
g3
F33.52
sg4
F-86.8
ssS'30094'
p687
(dp688
g3
F33.58605730000001
sg4
F-84.0378894
ssS'32549'
p689
(dp690
g3
F30.4163653
sg4
F-86.6108605
ssS'45832'
p691
(dp692
g3
F40.9385068
sg4
F-84.7106567
ssS'97013'
p693
(dp694
g3
F45.2145929
sg4
F-122.6720866
ssS'32544'
p695
(dp696
g3
F30.4515837
sg4
F-86.6913222
ssS'32547'
p697
(dp698
g3
F30.4960651
sg4
F-86.63087589999999
ssS'32542'
p699
(dp700
g3
F30.4615263
sg4
F-86.544697
ssS'50022'
p701
(dp702
g3
F41.4520379
sg4
F-95.01824599999999
ssS'95601'
p703
(dp704
g3
g43
sg44
g43
ssS'98026'
p705
(dp706
g3
F47.8369467
sg4
F-122.3390639
ssS'66480'
p707
(dp708
g3
F42.467628
sg4
F2.807864
ssS'41858'
p709
(dp710
g3
F37.1453831
sg4
F-82.8425216
ssS'83313'
p711
(dp712
g3
F43.3662171
sg4
F-114.2796699
ssS'81435'
p713
(dp714
g3
F37.9577203
sg4
F-107.8820831
ssS'77237'
p715
(dp716
g3
F29.7341341
sg4
F-95.4991656
ssS'54000'
p717
(dp718
g3
F34.2603621
sg4
F-94.7723501
ssS'78843'
p719
(dp720
g3
F29.371586
sg4
F-100.7746224
ssS'32940'
p721
(dp722
g3
F28.1988979
sg4
F-80.7879407
ssS'24431'
p723
(dp724
g3
F38.1679377
sg4
F-78.84392679999999
ssS'93225'
p725
(dp726
g3
F34.8177796
sg4
F-119.0027936
ssS'93637'
p727
(dp728
g3
F36.9152938
sg4
F-120.2051096
ssS'97015'
p729
(dp730
g3
F45.4120158
sg4
F-122.54578
ssS'77284'
p731
(dp732
g3
F29.76
sg4
F-95.36
ssS'74955'
p733
(dp734
g3
F35.6061262
sg4
F-94.6863782
ssS'32433'
p735
(dp736
g3
g43
sg44
g43
ssS'25801'
p737
(dp738
g3
F37.7997808
sg4
F-81.22985299999999
ssS'44035'
p739
(dp740
g3
F41.3683407
sg4
F-82.10764139999999
ssS'92318'
p741
(dp742
g3
F34.0472706
sg4
F-117.2386415
ssS'74953'
p743
(dp744
g3
F35.0625491
sg4
F-94.58307889999999
ssS'19146'
p745
(dp746
g3
F39.9396284
sg4
F-75.18663959999999
ssS'32827'
p747
(dp748
g3
F28.4055091
sg4
F-81.2849169
ssS'19144'
p749
(dp750
g3
F40.0358382
sg4
F-75.174734
ssS'32533'
p751
(dp752
g3
F30.6155415
sg4
F-87.32149079999999
ssS'32822'
p753
(dp754
g3
F28.4750405
sg4
F-81.2849169
ssS'19140'
p755
(dp756
g3
F40.012545
sg4
F-75.14870069999999
ssS'92311'
p757
(dp758
g3
F34.9744981
sg4
F-116.9616941
ssS'74437'
p759
(dp760
g3
g43
sg44
g43
ssS'85705'
p761
(dp762
g3
F32.2680738
sg4
F-110.9923904
ssS'38923'
p763
(dp764
g3
F33.3710557
sg4
F-89.9813445
ssS'74434'
p765
(dp766
g3
F35.7810086
sg4
F-95.2057909
ssS'32315'
p767
(dp768
g3
F30.4969444
sg4
F-84.3263389
ssS'32640'
p769
(dp770
g3
g43
sg44
g43
ssS'59730'
p771
(dp772
g3
F45.5911654
sg4
F-111.2035314
ssS'32092'
p773
(dp774
g3
F29.910184
sg4
F-81.5377013
ssS'32091'
p775
(dp776
g3
F29.9455019
sg4
F-82.10606829999999
ssS'77025'
p777
(dp778
g3
F29.6836967
sg4
F-95.4306141
ssS'22152'
p779
(dp780
g3
F38.7735269
sg4
F-77.22901929999999
ssS'22405'
p781
(dp782
g3
F38.3273109
sg4
F-77.4013403
ssS'22407'
p783
(dp784
g3
F38.3056063
sg4
F-77.58486649999999
ssS'35442'
p785
(dp786
g3
F33.0210567
sg4
F-88.2071598
ssS'35444'
p787
(dp788
g3
F33.3422925
sg4
F-87.32149079999999
ssS'22015'
p789
(dp790
g3
F38.7843884
sg4
F-77.2807423
ssS'32795'
p791
(dp792
g3
F28.7561782
sg4
F-81.34068099999999
ssS'43460'
p793
(dp794
g3
F41.6056979
sg4
F-83.5656379
ssS'67801'
p795
(dp796
g3
F37.7614526
sg4
F-100.0359661
ssS'31908'
p797
(dp798
g3
F32.46
sg4
F-84.99
ssS'32792'
p799
(dp800
g3
F28.6092911
sg4
F-81.30142839999999
ssS'32793'
p801
(dp802
g3
F28.5979388
sg4
F-81.30446549999999
ssS'59405'
p803
(dp804
g3
F47.30169739999999
sg4
F-111.351791
ssS'81502'
p805
(dp806
g3
F39.0687149
sg4
F-108.5662111
ssS'81501'
p807
(dp808
g3
F39.075059
sg4
F-108.5522531
ssS'32209'
p809
(dp810
g3
F30.36173479999999
sg4
F-81.69663059999999
ssS'81507'
p811
(dp812
g3
F38.9826089
sg4
F-108.5938124
ssS'81505'
p813
(dp814
g3
F39.2240584
sg4
F-108.5938124
ssS'34787'
p815
(dp816
g3
F28.4385186
sg4
F-81.6254283
ssS'32225'
p817
(dp818
g3
F30.3658304
sg4
F-81.49379929999999
ssS'32226'
p819
(dp820
g3
F30.4573359
sg4
F-81.49379929999999
ssS'87592'
p821
(dp822
g3
F35.79
sg4
F-105.99
ssS'32221'
p823
(dp824
g3
F30.253501
sg4
F-81.8879884
ssS'84655'
p825
(dp826
g3
F39.989216
sg4
F-111.8687825
ssS'16147'
p827
(dp828
g3
F45.51063449999999
sg4
F0.3097547
ssS'59604'
p829
(dp830
g3
F46.61
sg4
F-112.01
ssS'27261'
p831
(dp832
g3
F35.95
sg4
I-80
ssS'32228'
p833
(dp834
g3
F30.38787
sg4
F-81.40865
ssS'93524'
p835
(dp836
g3
F34.9326031
sg4
F-117.9073244
ssS'82801'
p837
(dp838
g3
F44.8302484
sg4
F-106.8986415
ssS'60088'
p839
(dp840
g3
F42.3101523
sg4
F-87.86970559999999
ssS'40359'
p841
(dp842
g3
F38.4965261
sg4
F-84.8150781
ssS'19510'
p843
(dp844
g3
F40.4465039
sg4
F-75.8824422
ssS'21114'
p845
(dp846
g3
F39.0145932
sg4
F-76.68169619999999
ssS'98105'
p847
(dp848
g3
F47.6614244
sg4
F-122.2683743
ssS'98104'
p849
(dp850
g3
F47.6015566
sg4
F-122.3323351
ssS'99980'
p851
(dp852
g3
F69.72145909999999
sg4
F27.2104014
ssS'24800'
p853
(dp854
g3
F45.4087767
sg4
F0.880083
ssS'52402'
p855
(dp856
g3
F42.0166364
sg4
F-91.6663523
ssS'17545'
p857
(dp858
g3
F40.1778151
sg4
F-76.4331698
ssS'64113'
p859
(dp860
g3
F39.0171368
sg4
F-94.5985613
ssS'59635'
p861
(dp862
g3
F46.5390802
sg4
F-111.8171443
ssS'25438'
p863
(dp864
g3
F39.320726
sg4
F-77.87674419999999
ssS'51859'
p865
(dp866
g3
g43
sg44
g43
ssS'32007'
p867
(dp868
g3
F29.7798027
sg4
F-81.642556
ssS'32003'
p869
(dp870
g3
F30.104973
sg4
F-81.71305219999999
ssS'97321'
p871
(dp872
g3
F44.6393041
sg4
F-123.1323006
ssS'97322'
p873
(dp874
g3
F44.646184
sg4
F-123.0158382
ssS'77627'
p875
(dp876
g3
F29.9714027
sg4
F-93.9980485
ssS'91311'
p877
(dp878
g3
F34.2710376
sg4
F-118.61481
ssS'81328'
p879
(dp880
g3
F37.3227329
sg4
F-108.3801314
ssS'80210'
p881
(dp882
g3
F39.6751269
sg4
F-104.9680914
ssS'30103'
p883
(dp884
g3
F34.358156
sg4
F-84.8984775
ssS'77057'
p885
(dp886
g3
F29.7503969
sg4
F-95.4935119
ssS'14432'
p887
(dp888
g3
F42.9286351
sg4
F-77.1255055
ssS'01564'
p889
(dp890
g3
F42.4551075
sg4
F-71.785972
ssS'80216'
p891
(dp892
g3
F39.7845048
sg4
F-104.9797753
ssS'29904'
p893
(dp894
g3
F32.4614333
sg4
F-80.7200557
ssS'98072'
p895
(dp896
g3
F47.7742762
sg4
F-122.1358875
ssS'30101'
p897
(dp898
g3
F34.0512519
sg4
F-84.7211074
ssS'43907'
p899
(dp900
g3
F40.2461348
sg4
F-81.0312989
ssS'36302'
p901
(dp902
g3
g43
sg44
g43
ssS'81594'
p903
(dp904
g3
F60.4529485
sg4
F17.6159926
ssS'30100'
p905
(dp906
g3
F47.1176766
sg4
F-124.1618432
ssS'43040'
p907
(dp908
g3
F40.2612116
sg4
F-83.357567
ssS'74343'
p909
(dp910
g3
F36.7487392
sg4
F-94.8313257
ssS'24931'
p911
(dp912
g3
F37.90701920000001
sg4
F-80.5771737
ssS'10463'
p913
(dp914
g3
F40.8803247
sg4
F-73.9095279
ssS'99212'
p915
(dp916
g3
F47.6625469
sg4
F-117.3086825
ssS'99999'
p917
(dp918
g3
F38.8636352
sg4
F-77.2289177
ssS'98837'
p919
(dp920
g3
F47.1808437
sg4
F-119.28281
ssS'99216'
p921
(dp922
g3
F47.6761145
sg4
F-117.2108822
ssS'99214'
p923
(dp924
g3
F47.6569998
sg4
F-117.2489146
ssS'98201'
p925
(dp926
g3
F47.9990269
sg4
F-122.1914014
ssS'81416'
p927
(dp928
g3
F38.7450038
sg4
F-108.1903059
ssS'10303'
p929
(dp930
g3
F40.6311444
sg4
F-74.17390569999999
ssS'20889'
p931
(dp932
g3
F39.0083306
sg4
F-77.09637599999999
ssS'75211'
p933
(dp934
g3
F32.7433629
sg4
F-96.8887202
ssS'60018'
p935
(dp936
g3
F42.0144814
sg4
F-87.8991514
ssS'11012'
p937
(dp938
g3
F43.309008
sg4
F2.913689
ssS'21609'
p939
(dp940
g3
F38.7459509
sg4
F-75.9440582
ssS'39913'
p941
(dp942
g3
F28.3914285
sg4
F45.9919888
ssS'99352'
p943
(dp944
g3
F46.23940899999999
sg4
F-119.2934654
ssS'57555'
p945
(dp946
g3
g43
sg44
g43
ssS'99350'
p947
(dp948
g3
F46.1170783
sg4
F-119.7626844
ssS'21601'
p949
(dp950
g3
F38.7742099
sg4
F-76.07640359999999
ssS'70011'
p951
(dp952
g3
F30.01
sg4
F-90.16
ssS'97355'
p953
(dp954
g3
F44.5395868
sg4
F-122.7709422
ssS'34653'
p955
(dp956
g3
F28.2333343
sg4
F-82.7023383
ssS'53913'
p957
(dp958
g3
F43.52193219999999
sg4
F-89.7379958
ssS'49048'
p959
(dp960
g3
F42.2766433
sg4
F-85.50972259999999
ssS'85423'
p961
(dp962
g3
F27.9511483
sg4
F-110.9193691
ssS'36303'
p963
(dp964
g3
F31.2483723
sg4
F-85.37562489999999
ssS'84116'
p965
(dp966
g3
F40.8038325
sg4
F-112.0237903
ssS'84115'
p967
(dp968
g3
F40.7177351
sg4
F-111.8985922
ssS'84112'
p969
(dp970
g3
F40.7652201
sg4
F-111.8419536
ssS'84110'
p971
(dp972
g3
F40.7622779
sg4
F-111.8925217
ssS'57104'
p973
(dp974
g3
F43.6032799
sg4
F-96.71729069999999
ssS'63383'
p975
(dp976
g3
F38.7728257
sg4
F-91.17369939999999
ssS'11625'
p977
(dp978
g3
F59.39484839999999
sg4
F24.6285979
ssS'46307'
p979
(dp980
g3
g43
sg44
g43
ssS'76534'
p981
(dp982
g3
F30.8922789
sg4
F-97.3732655
ssS'98296'
p983
(dp984
g3
F47.8313268
sg4
F-122.0938937
ssS'97211'
p985
(dp986
g3
F45.5767359
sg4
F-122.6386722
ssS'12135'
p987
(dp988
g3
F44.23590799999999
sg4
F2.110506
ssS'54480'
p989
(dp990
g3
F45.0556417
sg4
F-90.28133609999999
ssS'54481'
p991
(dp992
g3
F44.5306808
sg4
F-89.6063278
ssS'14020'
p993
(dp994
g3
F43.0100971
sg4
F-78.2248291
ssS'58102'
p995
(dp996
g3
F46.9223429
sg4
F-96.840133
ssS'96860'
p997
(dp998
g3
F21.3563454
sg4
F-157.9382041
ssS'54487'
p999
(dp1000
g3
F45.4871774
sg4
F-89.73349909999999
ssS'53593'
p1001
(dp1002
g3
F42.999243
sg4
F-89.5686271
ssS'33442'
p1003
(dp1004
g3
F26.3042864
sg4
F-80.15402259999999
ssS'33193'
p1005
(dp1006
g3
F25.6987264
sg4
F-80.4604643
ssS'35118'
p1007
(dp1008
g3
F33.549053
sg4
F-87.0524338
ssS'45873'
p1009
(dp1010
g3
F41.1638571
sg4
F-84.375233
ssS'48220'
p1011
(dp1012
g3
F42.4584036
sg4
F-83.13809549999999
ssS'45714'
p1013
(dp1014
g3
F39.3297421
sg4
F-81.6254283
ssS'17057'
p1015
(dp1016
g3
F40.2017564
sg4
F-76.7221082
ssS'10019'
p1017
(dp1018
g3
F40.7686973
sg4
F-73.9918181
ssS'83861'
p1019
(dp1020
g3
F47.2237308
sg4
F-116.5622428
ssS'75062'
p1021
(dp1022
g3
F32.8449965
sg4
F-96.9799755
ssS'83864'
p1023
(dp1024
g3
F48.4193918
sg4
F-116.5300267
ssS'98850'
p1025
(dp1026
g3
F47.3128721
sg4
F-120.0596234
ssS'37780'
p1027
(dp1028
g3
F40.688381
sg4
F-5.6168834
ssS'99507'
p1029
(dp1030
g3
F61.14876899999999
sg4
F-149.8010811
ssS'49259'
p1031
(dp1032
g3
F42.3780782
sg4
F-84.25948609999999
ssS'99505'
p1033
(dp1034
g3
F61.30080859999999
sg4
F-149.7106353
ssS'49314'
p1035
(dp1036
g3
F42.7300031
sg4
F-85.84034419999999
ssS'33166'
p1037
(dp1038
g3
F25.8235041
sg4
F-80.3101684
ssS'84741'
p1039
(dp1040
g3
F37.1052853
sg4
F-112.1430215
ssS'50265'
p1041
(dp1042
g3
F41.5507357
sg4
F-93.7333537
ssS'57502'
p1043
(dp1044
g3
F49.355312
sg4
F6.556431
ssS'60651'
p1045
(dp1046
g3
F41.9024826
sg4
F-87.7418842
ssS'33169'
p1047
(dp1048
g3
F25.9400585
sg4
F-80.2153998
ssS'33040'
p1049
(dp1050
g3
F24.5669442
sg4
F-81.8879884
ssS'41222'
p1051
(dp1052
g3
F37.7724758
sg4
F-82.85329279999999
ssS'94710'
p1053
(dp1054
g3
F37.8645848
sg4
F-122.2965778
ssS'48315'
p1055
(dp1056
g3
F42.6795602
sg4
F-83.0039075
ssS'85040'
p1057
(dp1058
g3
F33.4040693
sg4
F-112.029752
ssS'85041'
p1059
(dp1060
g3
F33.3885174
sg4
F-112.1132142
ssS'84188'
p1061
(dp1062
g3
F37.0405988
sg4
F35.2632279
ssS'30288'
p1063
(dp1064
g3
F33.6610155
sg4
F-84.3279093
ssS'29229'
p1065
(dp1066
g3
F34.15854789999999
sg4
F-80.8875861
ssS'84060'
p1067
(dp1068
g3
F40.6365451
sg4
F-111.4991334
ssS'84066'
p1069
(dp1070
g3
F40.2562647
sg4
F-110.0926112
ssS'54411'
p1071
(dp1072
g3
F45.0372622
sg4
F-90.1122157
ssS'14651'
p1073
(dp1074
g3
g43
sg44
g43
ssS'60634'
p1075
(dp1076
g3
F41.947969
sg4
F-87.78617109999999
ssS'41179'
p1077
(dp1078
g3
F38.5079686
sg4
F-83.3789389
ssS'44310'
p1079
(dp1080
g3
F41.1024492
sg4
F-81.4992884
ssS'74436'
p1081
(dp1082
g3
F35.8017247
sg4
F-95.70892409999999
ssS'54982'
p1083
(dp1084
g3
F44.0748991
sg4
F-89.3037147
ssS'33614'
p1085
(dp1086
g3
F28.0133862
sg4
F-82.50775929999999
ssS'59624'
p1087
(dp1088
g3
F46.61
sg4
F-112.01
ssS'59749'
p1089
(dp1090
g3
F45.381325
sg4
F-112.1138491
ssS'33610'
p1091
(dp1092
g3
F28.0007147
sg4
F-82.3831561
ssS'38637'
p1093
(dp1094
g3
F34.9616778
sg4
F-90.04665589999999
ssS'48131'
p1095
(dp1096
g3
F41.9648232
sg4
F-83.6986568
ssS'54484'
p1097
(dp1098
g3
F44.8131049
sg4
F-90.0373201
ssS'58204'
p1099
(dp1100
g3
F47.9604367
sg4
F-97.3754323
ssS'30046'
p1101
(dp1102
g3
F33.9508571
sg4
F-83.985008
ssS'44221'
p1103
(dp1104
g3
F41.1362185
sg4
F-81.4828198
ssS'25880'
p1105
(dp1106
g3
F37.8726918
sg4
F-81.2188355
ssS'75034'
p1107
(dp1108
g3
F33.1376528
sg4
F-96.85654269999999
ssS'67020'
p1109
(dp1110
g3
F38.0252599
sg4
F-97.654811
ssS'33298'
p1111
(dp1112
g3
F44.846949
sg4
F-0.220872
ssS'48653'
p1113
(dp1114
g3
F44.4626923
sg4
F-84.6479124
ssS'67025'
p1115
(dp1116
g3
F37.6565287
sg4
F-97.8068851
ssS'18444'
p1117
(dp1118
g3
F41.3409779
sg4
F-75.55096019999999
ssS'44255'
p1119
(dp1120
g3
F41.2975982
sg4
F-81.2408689
ssS'44256'
p1121
(dp1122
g3
F41.1524413
sg4
F-81.8631302
ssS'33761'
p1123
(dp1124
g3
F28.0305402
sg4
F-82.7185282
ssS'59825'
p1125
(dp1126
g3
F46.656509
sg4
F-113.6808648
ssS'33765'
p1127
(dp1128
g3
F27.9765043
sg4
F-82.74280569999999
ssS'96786'
p1129
(dp1130
g3
F21.5485043
sg4
F-157.9762097
ssS'14809'
p1131
(dp1132
g3
F42.4255687
sg4
F-77.4472495
ssS'28208'
p1133
(dp1134
g3
F35.212973
sg4
F-80.9097127
ssS'13100'
p1135
(dp1136
g3
F43.788652
sg4
F4.831342999999999
ssS'78270'
p1137
(dp1138
g3
F29.58
sg4
F-98.44999999999999
ssS'44622'
p1139
(dp1140
g3
F40.5443195
sg4
F-81.49379929999999
ssS'59520'
p1141
(dp1142
g3
F48.0293638
sg4
F-109.8793536
ssS'83328'
p1143
(dp1144
g3
F42.5537762
sg4
F-114.6173092
ssS'48226'
p1145
(dp1146
g3
F42.328245
sg4
F-83.0495622
ssS'14482'
p1147
(dp1148
g3
F42.9812874
sg4
F-77.9510209
ssS'30235'
p1149
(dp1150
g3
F43.928323
sg4
F4.54416
ssS'26330'
p1151
(dp1152
g3
F39.3011575
sg4
F-80.2098219
ssS'33539'
p1153
(dp1154
g3
F28.23
sg4
F-82.17999999999999
ssS'30236'
p1155
(dp1156
g3
F33.5213067
sg4
F-84.3226488
ssS'83325'
p1157
(dp1158
g3
F42.5985992
sg4
F-114.2541735
ssS'14489'
p1159
(dp1160
g3
F43.1040114
sg4
F-76.9873477
ssS'59485'
p1161
(dp1162
g3
F47.4319211
sg4
F-111.5068386
ssS'62800'
p1163
(dp1164
g3
F50.15309
sg4
F2.564733
ssS'33909'
p1165
(dp1166
g3
F26.7209489
sg4
F-81.9425701
ssS'94557'
p1167
(dp1168
g3
F37.63
sg4
F-122.1
ssS'48043'
p1169
(dp1170
g3
F42.5988654
sg4
F-82.8802133
ssS'33902'
p1171
(dp1172
g3
g43
sg44
g43
ssS'33900'
p1173
(dp1174
g3
F61.4780869
sg4
F23.7391362
ssS'33906'
p1175
(dp1176
g3
F26.5935368
sg4
F-81.85834919999999
ssS'27549'
p1177
(dp1178
g3
F36.0730279
sg4
F-78.24761459999999
ssS'33905'
p1179
(dp1180
g3
F26.6637911
sg4
F-81.8180424
ssS'67114'
p1181
(dp1182
g3
F38.06972469999999
sg4
F-97.286868
ssS'37075'
p1183
(dp1184
g3
F36.3233083
sg4
F-86.6006249
ssS'95111'
p1185
(dp1186
g3
F37.28566319999999
sg4
F-121.8277925
ssS'45893'
p1187
(dp1188
g3
F40.8825869
sg4
F-84.14582209999999
ssS'49252'
p1189
(dp1190
g3
F42.0178138
sg4
F-84.75244819999999
ssS'62254'
p1191
(dp1192
g3
F38.58991710000001
sg4
F-89.83177289999999
ssS'22193'
p1193
(dp1194
g3
F38.6418278
sg4
F-77.3439283
ssS'42053'
p1195
(dp1196
g3
g43
sg44
g43
ssS'87117'
p1197
(dp1198
g3
F35.04
sg4
F-106.56
ssS'33991'
p1199
(dp1200
g3
F26.6309755
sg4
F-82.00801400000002
ssS'30120'
p1201
(dp1202
g3
g43
sg44
g43
ssS'34770'
p1203
(dp1204
g3
F28.254744
sg4
F-81.31427699999999
ssS'17430'
p1205
(dp1206
g3
F45.353462
sg4
F-0.515261
ssS'71113'
p1207
(dp1208
g3
g43
sg44
g43
ssS'93245'
p1209
(dp1210
g3
F36.2960087
sg4
F-119.8120795
ssS'30127'
p1211
(dp1212
g3
F33.8822455
sg4
F-84.6688348
ssS'30126'
p1213
(dp1214
g3
F33.8215697
sg4
F-84.5536678
ssS'76311'
p1215
(dp1216
g3
F33.9726788
sg4
F-98.5089455
ssS'40810'
p1217
(dp1218
g3
F36.908806
sg4
F-83.3682539
ssS'67504'
p1219
(dp1220
g3
F38.0534973
sg4
F-97.9296256
ssS'83607'
p1221
(dp1222
g3
F43.7182661
sg4
F-116.7581573
ssS'67501'
p1223
(dp1224
g3
F37.9854328
sg4
F-97.9374948
ssS'83605'
p1225
(dp1226
g3
F43.6686454
sg4
F-116.6462445
ssS'23518'
p1227
(dp1228
g3
F36.9208072
sg4
F-76.2073525
ssS'78721'
p1229
(dp1230
g3
F30.2737366
sg4
F-97.68194299999999
ssS'78720'
p1231
(dp1232
g3
F30.4233211
sg4
F-97.75628440000001
ssS'78727'
p1233
(dp1234
g3
F30.432242
sg4
F-97.7145152
ssS'78726'
p1235
(dp1236
g3
F30.4190616
sg4
F-97.8395151
ssS'78725'
p1237
(dp1238
g3
F30.2316673
sg4
F-97.6168439
ssS'12485'
p1239
(dp1240
g3
g43
sg44
g43
ssS'76503'
p1241
(dp1242
g3
F31.1006456
sg4
F-97.3396579
ssS'75060'
p1243
(dp1244
g3
F32.8012869
sg4
F-96.9584922
ssS'30055'
p1245
(dp1246
g3
F33.4938607
sg4
F-83.75178509999999
ssS'22775'
p1247
(dp1248
g3
F-22.9563884
sg4
F-43.37531540000001
ssS'42420'
p1249
(dp1250
g3
F37.8039941
sg4
F-87.5198011
ssS'33836'
p1251
(dp1252
g3
F28.1539552
sg4
F-81.59964529999999
ssS'92410'
p1253
(dp1254
g3
F34.0961955
sg4
F-117.3087578
ssS'54115'
p1255
(dp1256
g3
F44.40193499999999
sg4
F-88.0705319
ssS'18017'
p1257
(dp1258
g3
F40.659437
sg4
F-75.3995089
ssS'80201'
p1259
(dp1260
g3
F39.75
sg4
F-104.99
ssS'95377'
p1261
(dp1262
g3
F37.6571548
sg4
F-121.4684703
ssS'92552'
p1263
(dp1264
g3
F33.9173225
sg4
F-117.2508566
ssS'27603'
p1265
(dp1266
g3
F35.6631125
sg4
F-78.6795836
ssS'27606'
p1267
(dp1268
g3
F35.7418297
sg4
F-78.713608
ssS'91770'
p1269
(dp1270
g3
F34.06173649999999
sg4
F-118.0830047
ssS'38113'
p1271
(dp1272
g3
F35.1059719
sg4
F-90.0992722
ssS'28429'
p1273
(dp1274
g3
F34.3370418
sg4
F-77.8938895
ssS'18316'
p1275
(dp1276
g3
F20.5317036
sg4
F45.2431035
ssS'38116'
p1277
(dp1278
g3
F35.0278019
sg4
F-90.0093266
ssS'28053'
p1279
(dp1280
g3
F35.2637147
sg4
F-81.185756
ssS'11111'
p1281
(dp1282
g3
F43.191764
sg4
F2.815329
ssS'28355'
p1283
(dp1284
g3
F35.3901897
sg4
F-79.19447319999999
ssS'33242'
p1285
(dp1286
g3
F25.8021455
sg4
F-80.2255572
ssS'50240'
p1287
(dp1288
g3
g43
sg44
g43
ssS'23234'
p1289
(dp1290
g3
F37.4664427
sg4
F-77.46283249999999
ssS'78657'
p1291
(dp1292
g3
F30.5451919
sg4
F-98.385532
ssS'59087'
p1293
(dp1294
g3
F47.0113803
sg4
F-108.2242196
ssS'78654'
p1295
(dp1296
g3
F30.5684965
sg4
F-98.19942759999999
ssS'78653'
p1297
(dp1298
g3
F30.3332225
sg4
F-97.54638849999999
ssS'67207'
p1299
(dp1300
g3
F37.6614293
sg4
F-97.2329255
ssS'67208'
p1301
(dp1302
g3
F37.701103
sg4
F-97.27607599999999
ssS'67209'
p1303
(dp1304
g3
F37.6648693
sg4
F-97.4327273
ssS'29059'
p1305
(dp1306
g3
F33.3153375
sg4
F-80.4326521
ssS'79705'
p1307
(dp1308
g3
F32.0688848
sg4
F-102.0946818
ssS'94952'
p1309
(dp1310
g3
F38.235501
sg4
F-122.6420207
ssS'30339'
p1311
(dp1312
g3
F33.8676889
sg4
F-84.4645184
ssS'79701'
p1313
(dp1314
g3
F31.9916009
sg4
F-102.0832543
ssS'23604'
p1315
(dp1316
g3
F37.1457143
sg4
F-76.6008334
ssS'23606'
p1317
(dp1318
g3
F37.0672839
sg4
F-76.514138
ssS'13842'
p1319
(dp1320
g3
F42.36910940000001
sg4
F-74.72200169999999
ssS'34133'
p1321
(dp1322
g3
F26.33069
sg4
F-81.80798999999999
ssS'89801'
p1323
(dp1324
g3
F41.1852816
sg4
F-115.7575196
ssS'66012'
p1325
(dp1326
g3
F39.0718795
sg4
F-94.9143239
ssS'83336'
p1327
(dp1328
g3
F42.569171
sg4
F-113.8410143
ssS'28904'
p1329
(dp1330
g3
F35.0964003
sg4
F-83.7199136
ssS'60185'
p1331
(dp1332
g3
F41.8959291
sg4
F-88.21690269999999
ssS'23609'
p1333
(dp1334
g3
F36.9799999
sg4
F-76.42999999999999
ssS'28901'
p1335
(dp1336
g3
F35.2092378
sg4
F-83.7836403
ssS'29445'
p1337
(dp1338
g3
F33.0026132
sg4
F-79.99759159999999
ssS'30905'
p1339
(dp1340
g3
F33.4243373
sg4
F-82.1387233
ssS'52809'
p1341
(dp1342
g3
F41.5618322
sg4
F-90.59108839999999
ssS'84401'
p1343
(dp1344
g3
F41.2231225
sg4
F-111.9737732
ssS'17318'
p1345
(dp1346
g3
F40.005686
sg4
F-76.7330652
ssS'93737'
p1347
(dp1348
g3
F36.7512882
sg4
F-119.6441212
ssS'12477'
p1349
(dp1350
g3
g43
sg44
g43
ssS'33523'
p1351
(dp1352
g3
F28.4258996
sg4
F-82.1931149
ssS'92154'
p1353
(dp1354
g3
F32.5967198
sg4
F-116.9028125
ssS'14504'
p1355
(dp1356
g3
F42.9670456
sg4
F-77.23189339999999
ssS'72396'
p1357
(dp1358
g3
F35.2557006
sg4
F-90.86751339999999
ssS'66082'
p1359
(dp1360
g3
F42.61396
sg4
F2.102634
ssS'66085'
p1361
(dp1362
g3
F38.8012243
sg4
F-94.65536790000002
ssS'14502'
p1363
(dp1364
g3
F43.0968034
sg4
F-77.3439283
ssS'95205'
p1365
(dp1366
g3
F37.9642589
sg4
F-121.2569138
ssS'95207'
p1367
(dp1368
g3
F37.9983748
sg4
F-121.3198491
ssS'95206'
p1369
(dp1370
g3
F37.9009213
sg4
F-121.422761
ssS'95201'
p1371
(dp1372
g3
F37.96
sg4
F-121.29
ssS'81230'
p1373
(dp1374
g3
F38.5084518
sg4
F-106.8178377
ssS'29605'
p1375
(dp1376
g3
F34.7671945
sg4
F-82.37773349999999
ssS'29602'
p1377
(dp1378
g3
F34.8538671
sg4
F-82.40856889999999
ssS'37128'
p1379
(dp1380
g3
F35.7972575
sg4
F-86.438974
ssS'47630'
p1381
(dp1382
g3
F37.9701535
sg4
F-87.3612205
ssS'25953'
p1383
(dp1384
g3
F-22.4068623
sg4
F-42.9651497
ssS'28732'
p1385
(dp1386
g3
F35.4393566
sg4
F-82.4536115
ssS'21162'
p1387
(dp1388
g3
F39.3949598
sg4
F-76.39845369999999
ssS'28734'
p1389
(dp1390
g3
F35.1705372
sg4
F-83.46435509999999
ssS'23460'
p1391
(dp1392
g3
F36.826302
sg4
F-76.0333885
ssS'50583'
p1393
(dp1394
g3
F42.4226585
sg4
F-94.99744609999999
ssS'22565'
p1395
(dp1396
g3
F38.1332539
sg4
F-77.5193118
ssS'92806'
p1397
(dp1398
g3
F33.8362104
sg4
F-117.8721676
ssS'35217'
p1399
(dp1400
g3
F33.586822
sg4
F-86.7718017
ssS'32553'
p1401
(dp1402
g3
F-19.8731834
sg4
F-44.1957505
ssS'92801'
p1403
(dp1404
g3
F33.8469812
sg4
F-117.9541894
ssS'72765'
p1405
(dp1406
g3
F36.19
sg4
F-94.13
ssS'43210'
p1407
(dp1408
g3
F39.9990626
sg4
F-83.01733860000002
ssS'08015'
p1409
(dp1410
g3
F39.9340605
sg4
F-74.5228916
ssS'43212'
p1411
(dp1412
g3
F39.98263960000001
sg4
F-83.04150779999999
ssS'43214'
p1413
(dp1414
g3
F40.0480476
sg4
F-83.025396
ssS'94566'
p1415
(dp1416
g3
F37.6436199
sg4
F-121.8676464
ssS'43219'
p1417
(dp1418
g3
F40.0415191
sg4
F-82.9178838
ssS'22642'
p1419
(dp1420
g3
F38.9465403
sg4
F-78.07660360000001
ssS'11563'
p1421
(dp1422
g3
F40.6589417
sg4
F-73.6742232
ssS'70810'
p1423
(dp1424
g3
F30.35058129999999
sg4
F-91.0873551
ssS'72403'
p1425
(dp1426
g3
F35.81404630000001
sg4
F-90.6766634
ssS'12501'
p1427
(dp1428
g3
F41.844384
sg4
F-73.5358541
ssS'32956'
p1429
(dp1430
g3
F28.3067705
sg4
F-80.72207089999999
ssS'66883'
p1431
(dp1432
g3
F19.1565316
sg4
F44.8692573
ssS'67401'
p1433
(dp1434
g3
F38.8619254
sg4
F-97.654811
ssS'90046'
p1435
(dp1436
g3
F34.1147313
sg4
F-118.3637264
ssS'26555'
p1437
(dp1438
g3
F39.4799999
sg4
F-80.14
ssS'63627'
p1439
(dp1440
g3
F38.041733
sg4
F-90.2432307
ssS'30325'
p1441
(dp1442
g3
F33.8373615
sg4
F-84.4201604
ssS'50061'
p1443
(dp1444
g3
g43
sg44
g43
ssS'32428'
p1445
(dp1446
g3
F30.6823987
sg4
F-85.56121
ssS'32810'
p1447
(dp1448
g3
F28.6235111
sg4
F-81.4246931
ssS'90021'
p1449
(dp1450
g3
F34.0309258
sg4
F-118.2380432
ssS'96754'
p1451
(dp1452
g3
F22.1945701
sg4
F-159.4069452
ssS'75702'
p1453
(dp1454
g3
F32.368714
sg4
F-95.3207069
ssS'56303'
p1455
(dp1456
g3
F45.5711784
sg4
F-94.193691
ssS'38930'
p1457
(dp1458
g3
F33.5726622
sg4
F-90.1869644
ssS'34117'
p1459
(dp1460
g3
F26.1937437
sg4
F-81.5377013
ssS'34777'
p1461
(dp1462
g3
F28.5511292
sg4
F-81.6079728
ssS'19608'
p1463
(dp1464
g3
F40.319402
sg4
F-76.02758589999999
ssS'74426'
p1465
(dp1466
g3
F35.4588476
sg4
F-95.5827334
ssS'16124'
p1467
(dp1468
g3
F41.3363491
sg4
F-80.2432839
ssS'84790'
p1469
(dp1470
g3
F37.0441957
sg4
F-113.5490415
ssS'32771'
p1471
(dp1472
g3
F28.800557
sg4
F-81.30693149999999
ssS'38652'
p1473
(dp1474
g3
F34.4605576
sg4
F-89.0561532
ssS'11130'
p1475
(dp1476
g3
F42.820908
sg4
F2.020669
ssS'28117'
p1477
(dp1478
g3
F35.5910505
sg4
F-80.8765205
ssS'77034'
p1479
(dp1480
g3
F29.6124152
sg4
F-95.1901384
ssS'77035'
p1481
(dp1482
g3
F29.64645269999999
sg4
F-95.4935119
ssS'73045'
p1483
(dp1484
g3
F35.5066568
sg4
F-97.1574784
ssS'93517'
p1485
(dp1486
g3
F38.286368
sg4
F-119.3250347
ssS'75207'
p1487
(dp1488
g3
F32.7891591
sg4
F-96.82170169999999
ssS'77584'
p1489
(dp1490
g3
F29.5321026
sg4
F-95.3207069
ssS'93042'
p1491
(dp1492
g3
F33.2609258
sg4
F-119.5223715
ssS'77582'
p1493
(dp1494
g3
F30.04137519999999
sg4
F-94.67558009999999
ssS'93044'
p1495
(dp1496
g3
F34.15
sg4
F-119.19
ssS'82633'
p1497
(dp1498
g3
F43.2261477
sg4
F-105.2194808
ssS'43325'
p1499
(dp1500
g3
F40.6642617
sg4
F-82.8506002
ssS'55414'
p1501
(dp1502
g3
F44.978175
sg4
F-93.2157342
ssS'77423'
p1503
(dp1504
g3
F29.8166771
sg4
F-95.9621106
ssS'98668'
p1505
(dp1506
g3
F45.6405989
sg4
F-122.6234603
ssS'43451'
p1507
(dp1508
g3
F41.3149386
sg4
F-83.624201
ssS'24605'
p1509
(dp1510
g3
F37.2250391
sg4
F-81.32893969999999
ssS'24604'
p1511
(dp1512
g3
F37.21272
sg4
F-81.5623849
ssS'82005'
p1513
(dp1514
g3
F41.1431486
sg4
F-104.8746508
ssS'32254'
p1515
(dp1516
g3
F30.3476884
sg4
F-81.7458845
ssS'32256'
p1517
(dp1518
g3
F30.2205397
sg4
F-81.5537192
ssS'32259'
p1519
(dp1520
g3
g43
sg44
g43
ssS'32258'
p1521
(dp1522
g3
F30.1532158
sg4
F-81.57061089999999
ssS'55417'
p1523
(dp1524
g3
F44.903044
sg4
F-93.2332244
ssS'60804'
p1525
(dp1526
g3
F41.8483683
sg4
F-87.7664934
ssS'94315'
p1527
(dp1528
g3
F48.87033
sg4
F12.5765189
ssS'98448'
p1529
(dp1530
g3
F47.1459357
sg4
F-122.4364624
ssS'98449'
p1531
(dp1532
g3
F47.1584654
sg4
F-122.5211963
ssS'75357'
p1533
(dp1534
g3
F32.8121081
sg4
F-96.70094929999999
ssS'32177'
p1535
(dp1536
g3
F29.7618374
sg4
F-81.73494199999999
ssS'98444'
p1537
(dp1538
g3
F47.1547274
sg4
F-122.4554287
ssS'24954'
p1539
(dp1540
g3
F38.2798185
sg4
F-80.1428584
ssS'98446'
p1541
(dp1542
g3
F47.136478
sg4
F-122.3757983
ssS'98113'
p1543
(dp1544
g3
F47.61
sg4
F-122.33
ssS'60481'
p1545
(dp1546
g3
F41.3058508
sg4
F-88.1291387
ssS'25428'
p1547
(dp1548
g3
F39.3726499
sg4
F-78.0309542
ssS'90807'
p1549
(dp1550
g3
F33.8332465
sg4
F-118.1766294
ssS'74451'
p1551
(dp1552
g3
F35.7027009
sg4
F-94.99744609999999
ssS'28201'
p1553
(dp1554
g3
F35.2294139
sg4
F-80.9247346
ssS'67601'
p1555
(dp1556
g3
F38.9062422
sg4
F-99.32292129999999
ssS'32073'
p1557
(dp1558
g3
F30.1643797
sg4
F-81.7458845
ssS'90808'
p1559
(dp1560
g3
F33.8197825
sg4
F-118.1064156
ssS'19914'
p1561
(dp1562
g3
F-22.966137
sg4
F-49.8572863
ssS'25425'
p1563
(dp1564
g3
F39.3462327
sg4
F-77.77953699999999
ssS'43130'
p1565
(dp1566
g3
F39.7047822
sg4
F-82.605118
ssS'81601'
p1567
(dp1568
g3
F39.6044937
sg4
F-107.3375791
ssS'85226'
p1569
(dp1570
g3
F33.2872209
sg4
F-111.9403254
ssS'43135'
p1571
(dp1572
g3
F39.4855212
sg4
F-82.713132
ssS'85224'
p1573
(dp1574
g3
F33.3260297
sg4
F-111.8747445
ssS'85225'
p1575
(dp1576
g3
F33.3091946
sg4
F-111.8210866
ssS'12033'
p1577
(dp1578
g3
g43
sg44
g43
ssS'33619'
p1579
(dp1580
g3
F27.9363828
sg4
F-82.37773349999999
ssS'30130'
p1581
(dp1582
g3
g43
sg44
g43
ssS'38821'
p1583
(dp1584
g3
F33.9876974
sg4
F-88.4597673
ssS'97389'
p1585
(dp1586
g3
F44.5277138
sg4
F-123.0941587
ssS'43528'
p1587
(dp1588
g3
F41.620939
sg4
F-83.75178509999999
ssS'50263'
p1589
(dp1590
g3
g43
sg44
g43
ssS'98064'
p1591
(dp1592
g3
F47.39
sg4
F-122.2
ssS'46410'
p1593
(dp1594
g3
F41.47019890000001
sg4
F-87.32149079999999
ssS'43035'
p1595
(dp1596
g3
F40.18946760000001
sg4
F-83.0039075
ssS'32217'
p1597
(dp1598
g3
F30.243028
sg4
F-81.6309078
ssS'81215'
p1599
(dp1600
g3
F38.4
sg4
F-105.22
ssS'13000'
p1601
(dp1602
g3
F19.2415681
sg4
F-98.9921748
ssS'63042'
p1603
(dp1604
g3
F38.7884682
sg4
F-90.403094
ssS'21222'
p1605
(dp1606
g3
F39.2632524
sg4
F-76.4910093
ssS'20721'
p1607
(dp1608
g3
F38.9298173
sg4
F-76.79135579999999
ssS'17112'
p1609
(dp1610
g3
F40.3416765
sg4
F-76.8028933
ssS'75182'
p1611
(dp1612
g3
F32.8066621
sg4
F-96.5463156
ssS'35901'
p1613
(dp1614
g3
F34.0530094
sg4
F-85.9406745
ssS'97504'
p1615
(dp1616
g3
F42.3376195
sg4
F-122.7855028
ssS'46203'
p1617
(dp1618
g3
F39.74194930000001
sg4
F-86.1242881
ssS'45217'
p1619
(dp1620
g3
F39.1676821
sg4
F-84.498621
ssS'13339'
p1621
(dp1622
g3
g43
sg44
g43
ssS'32607'
p1623
(dp1624
g3
F29.647247
sg4
F-82.4156829
ssS'33256'
p1625
(dp1626
g3
F25.6656979
sg4
F-80.3240206
ssS'60412'
p1627
(dp1628
g3
F41.51
sg4
F-87.64
ssS'49548'
p1629
(dp1630
g3
F42.86447709999999
sg4
F-85.6588999
ssS'81411'
p1631
(dp1632
g3
F38.2957747
sg4
F-108.9502232
ssS'60143'
p1633
(dp1634
g3
F41.9720763
sg4
F-88.02163340000001
ssS'80487'
p1635
(dp1636
g3
F40.5989331
sg4
F-106.8178377
ssS'40008'
p1637
(dp1638
g3
g43
sg44
g43
ssS'60060'
p1639
(dp1640
g3
F42.2785596
sg4
F-88.0314174
ssS'12047'
p1641
(dp1642
g3
g43
sg44
g43
ssS'38846'
p1643
(dp1644
g3
F34.8407959
sg4
F-88.3919026
ssS'64037'
p1645
(dp1646
g3
F39.0326762
sg4
F-93.72320049999999
ssS'84109'
p1647
(dp1648
g3
F40.7060732
sg4
F-111.7376178
ssS'70000'
p1649
(dp1650
g3
F34.2567484
sg4
F-95.0278213
ssS'71459'
p1651
(dp1652
g3
F31.1208007
sg4
F-93.1679257
ssS'74216'
p1653
(dp1654
g3
F46.092077
sg4
F6.079739
ssS'90245'
p1655
(dp1656
g3
F33.9150066
sg4
F-118.4046264
ssS'93012'
p1657
(dp1658
g3
F34.2295937
sg4
F-118.9761519
ssS'70008'
p1659
(dp1660
g3
F47.846082
sg4
F6.250674000000001
ssS'92135'
p1661
(dp1662
g3
F32.70099
sg4
F-117.20864
ssS'84104'
p1663
(dp1664
g3
F40.7434064
sg4
F-111.9880199
ssS'43316'
p1665
(dp1666
g3
F40.95147610000001
sg4
F-83.4003037
ssS'74354'
p1667
(dp1668
g3
F36.8948595
sg4
F-94.9350929
ssS'77413'
p1669
(dp1670
g3
F29.7827623
sg4
F-95.70154319999999
ssS'56073'
p1671
(dp1672
g3
F44.2754558
sg4
F-94.43879
ssS'46703'
p1673
(dp1674
g3
F41.6323583
sg4
F-85.0025539
ssS'52722'
p1675
(dp1676
g3
F41.5703144
sg4
F-90.45967209999999
ssS'97348'
p1677
(dp1678
g3
F44.3743639
sg4
F-123.0905058
ssS'86301'
p1679
(dp1680
g3
F34.5659245
sg4
F-112.4649083
ssS'38654'
p1681
(dp1682
g3
F34.9284937
sg4
F-89.83177289999999
ssS'22211'
p1683
(dp1684
g3
F38.882578
sg4
F-77.07659269999999
ssS'20155'
p1685
(dp1686
g3
F38.8090413
sg4
F-77.60205690000001
ssS'10001'
p1687
(dp1688
g3
F40.75368539999999
sg4
F-73.9991637
ssS'49321'
p1689
(dp1690
g3
F43.0734054
sg4
F-85.6640365
ssS'96819'
p1691
(dp1692
g3
F21.3644294
sg4
F-157.8689014
ssS'54474'
p1693
(dp1694
g3
F44.8733046
sg4
F-89.62045619999999
ssS'33180'
p1695
(dp1696
g3
F25.9581433
sg4
F-80.13727569999999
ssS'54476'
p1697
(dp1698
g3
F44.9056901
sg4
F-89.5308903
ssS'54471'
p1699
(dp1700
g3
F44.9423334
sg4
F-89.3795835
ssS'21401'
p1701
(dp1702
g3
F38.979434
sg4
F-76.4919706
ssS'63378'
p1703
(dp1704
g3
F38.64
sg4
F-91.19
ssS'68112'
p1705
(dp1706
g3
F41.3776221
sg4
F-95.9515399
ssS'75074'
p1707
(dp1708
g3
F33.0243206
sg4
F-96.6745042
ssS'21702'
p1709
(dp1710
g3
F39.4839351
sg4
F-77.4472495
ssS'17065'
p1711
(dp1712
g3
F40.1134749
sg4
F-77.1830243
ssS'83858'
p1713
(dp1714
g3
F47.8409605
sg4
F-116.8791817
ssS'99531'
p1715
(dp1716
g3
F44.61665
sg4
F33.525367
ssS'83854'
p1717
(dp1718
g3
F47.7318837
sg4
F-116.9745742
ssS'57706'
p1719
(dp1720
g3
F44.1521528
sg4
F-103.0731459
ssS'84074'
p1721
(dp1722
g3
F40.5916513
sg4
F-112.3099336
ssS'36661'
p1723
(dp1724
g3
F24.6980809
sg4
F50.0393017
ssS'60462'
p1725
(dp1726
g3
F41.6305694
sg4
F-87.82550069999999
ssS'35424'
p1727
(dp1728
g3
F45.1591871
sg4
F17.4707081
ssS'71321'
p1729
(dp1730
g3
g43
sg44
g43
ssS'14882'
p1731
(dp1732
g3
g43
sg44
g43
ssS'22950'
p1733
(dp1734
g3
F48.4811297
sg4
F-2.7427489
ssS'84078'
p1735
(dp1736
g3
F40.4553668
sg4
F-109.5285205
ssS'84079'
p1737
(dp1738
g3
F40.4562659
sg4
F-109.5430459
ssS'84771'
p1739
(dp1740
g3
F37.11
sg4
F-113.58
ssS'54408'
p1741
(dp1742
g3
g43
sg44
g43
ssS'54409'
p1743
(dp1744
g3
F45.1087328
sg4
F-89.12908759999999
ssS'12211'
p1745
(dp1746
g3
F42.7068178
sg4
F-73.7536695
ssS'48307'
p1747
(dp1748
g3
F42.66789139999999
sg4
F-83.13273319999999
ssS'99301'
p1749
(dp1750
g3
F46.3537739
sg4
F-118.9197656
ssS'54401'
p1751
(dp1752
g3
F44.9810012
sg4
F-89.7192132
ssS'54402'
p1753
(dp1754
g3
F45.04
sg4
F-89.50999999999999
ssS'54403'
p1755
(dp1756
g3
F45.0362753
sg4
F-89.5113724
ssS'54407'
p1757
(dp1758
g3
F44.5292417
sg4
F-89.3037147
ssS'59638'
p1759
(dp1760
g3
F46.3453425
sg4
F-111.8285943
ssS'59639'
p1761
(dp1762
g3
F47.02021
sg4
F-112.548989
ssS'84791'
p1763
(dp1764
g3
F37.09
sg4
F-113.56
ssS'53142'
p1765
(dp1766
g3
F42.5735241
sg4
F-87.85519990000002
ssS'44135'
p1767
(dp1768
g3
F41.425548
sg4
F-81.82790109999999
ssS'59631'
p1769
(dp1770
g3
F46.2853813
sg4
F-112.3722953
ssS'59632'
p1771
(dp1772
g3
F46.1900349
sg4
F-112.0512959
ssS'59634'
p1773
(dp1774
g3
F46.439645
sg4
F-112.0107769
ssS'44130'
p1775
(dp1776
g3
F41.376464
sg4
F-81.7677645
ssS'84652'
p1777
(dp1778
g3
F39.0378247
sg4
F-111.8926303
ssS'10467'
p1779
(dp1780
g3
g43
sg44
g43
ssS'83686'
p1781
(dp1782
g3
F43.48913719999999
sg4
F-116.589439
ssS'83687'
p1783
(dp1784
g3
F43.6189362
sg4
F-116.5346883
ssS'83684'
p1785
(dp1786
g3
F47.719431
sg4
F11.7623847
ssS'34950'
p1787
(dp1788
g3
F27.4414482
sg4
F-80.3268812
ssS'32135'
p1789
(dp1790
g3
F29.58
sg4
F-81.2099999
ssS'43085'
p1791
(dp1792
g3
F40.103832
sg4
F-83.02002449999999
ssS'76102'
p1793
(dp1794
g3
F32.7579468
sg4
F-97.3246534
ssS'58602'
p1795
(dp1796
g3
F46.8797954
sg4
F-102.7851876
ssS'99011'
p1797
(dp1798
g3
F47.6266051
sg4
F-117.6526326
ssS'29341'
p1799
(dp1800
g3
F35.1289167
sg4
F-81.71305219999999
ssS'58601'
p1801
(dp1802
g3
F46.9206899
sg4
F-102.8548172
ssS'33835'
p1803
(dp1804
g3
F27.7898925
sg4
F-81.86051950000001
ssS'18943'
p1805
(dp1806
g3
F40.2827431
sg4
F-74.9953325
ssS'42220'
p1807
(dp1808
g3
F36.8997902
sg4
F-87.20209899999999
ssS'98939'
p1809
(dp1810
g3
F46.5050757
sg4
F-120.4682022
ssS'67226'
p1811
(dp1812
g3
F37.7685329
sg4
F-97.2113605
ssS'85080'
p1813
(dp1814
g3
F33.65
sg4
F-112.1
ssS'83303'
p1815
(dp1816
g3
F42.5565027
sg4
F-114.4729233
ssS'59832'
p1817
(dp1818
g3
F46.6793985
sg4
F-113.1980732
ssS'24061'
p1819
(dp1820
g3
F37.22094939999999
sg4
F-80.42280099999999
ssS'97914'
p1821
(dp1822
g3
F44.1167978
sg4
F-117.0377468
ssS'59837'
p1823
(dp1824
g3
F46.5308359
sg4
F-113.2266329
ssS'78268'
p1825
(dp1826
g3
F29.497112
sg4
F-98.6253239
ssS'33758'
p1827
(dp1828
g3
F27.9656
sg4
F-82.8006
ssS'78266'
p1829
(dp1830
g3
F29.6318718
sg4
F-98.3197946
ssS'21769'
p1831
(dp1832
g3
g43
sg44
g43
ssS'33026'
p1833
(dp1834
g3
F26.0272663
sg4
F-80.29345219999999
ssS'71602'
p1835
(dp1836
g3
F34.29047
sg4
F-92.1253854
ssS'44454'
p1837
(dp1838
g3
F40.9171514
sg4
F-80.5382889
ssS'30598'
p1839
(dp1840
g3
F34.59452
sg4
F-83.3557393
ssS'18640'
p1841
(dp1842
g3
F41.2972495
sg4
F-75.7487779
ssS'58852'
p1843
(dp1844
g3
F48.3465618
sg4
F-102.9789899
ssS'83332'
p1845
(dp1846
g3
F42.8101624
sg4
F-114.9714842
ssS'83333'
p1847
(dp1848
g3
F43.6006653
sg4
F-114.2559471
ssS'34251'
p1849
(dp1850
g3
F27.3768723
sg4
F-82.1713632
ssS'67566'
p1851
(dp1852
g3
F37.9313884
sg4
F-98.1120116
ssS'67561'
p1853
(dp1854
g3
F38.0996736
sg4
F-98.1120116
ssS'30188'
p1855
(dp1856
g3
F34.1280759
sg4
F-84.44877199999999
ssS'65721'
p1857
(dp1858
g3
F36.9756433
sg4
F-93.19805269999999
ssS'38053'
p1859
(dp1860
g3
F35.3466196
sg4
F-89.9626799
ssS'83814'
p1861
(dp1862
g3
F47.6719353
sg4
F-116.7076758
ssS'76541'
p1863
(dp1864
g3
F31.1168297
sg4
F-97.725376
ssS'24319'
p1865
(dp1866
g3
F36.7237331
sg4
F-81.6254283
ssS'59645'
p1867
(dp1868
g3
F46.67048990000001
sg4
F-111.0434996
ssS'59644'
p1869
(dp1870
g3
F46.3839014
sg4
F-111.4820601
ssS'59647'
p1871
(dp1872
g3
F46.4799999
sg4
F-111.65954
ssS'59643'
p1873
(dp1874
g3
F46.2040051
sg4
F-111.5803757
ssS'71851'
p1875
(dp1876
g3
F33.8457722
sg4
F-93.9266502
ssS'68230'
p1877
(dp1878
g3
F47.934548
sg4
F7.564032999999999
ssS'33762'
p1879
(dp1880
g3
F27.9006925
sg4
F-82.68614459999999
ssS'99711'
p1881
(dp1882
g3
F64.84
sg4
F-147.72
ssS'29461'
p1883
(dp1884
g3
F33.146521
sg4
F-79.9864071
ssS'67457'
p1885
(dp1886
g3
F38.3184485
sg4
F-97.9810845
ssS'76633'
p1887
(dp1888
g3
F31.668561
sg4
F-97.33005299999999
ssS'62225'
p1889
(dp1890
g3
F38.5426987
sg4
F-89.8551818
ssS'77096'
p1891
(dp1892
g3
F29.6699914
sg4
F-95.4830243
ssS'27417'
p1893
(dp1894
g3
F36.01
sg4
F-79.86999999999999
ssS'33982'
p1895
(dp1896
g3
F26.8844636
sg4
F-81.73494199999999
ssS'54751'
p1897
(dp1898
g3
F44.8713797
sg4
F-91.949021
ssS'40003'
p1899
(dp1900
g3
F38.2652936
sg4
F-85.0545197
ssS'41144'
p1901
(dp1902
g3
F38.5443707
sg4
F-82.92864279999999
ssS'41143'
p1903
(dp1904
g3
F38.3375954
sg4
F-82.9716617
ssS'78418'
p1905
(dp1906
g3
F27.6164159
sg4
F-97.286868
ssS'37204'
p1907
(dp1908
g3
F36.1003494
sg4
F-86.7718017
ssS'74003'
p1909
(dp1910
g3
F36.7340863
sg4
F-96.0891032
ssS'07054'
p1911
(dp1912
g3
F40.8620476
sg4
F-74.3939339
ssS'67514'
p1913
(dp1914
g3
F37.8410211
sg4
F-98.19942759999999
ssS'33474'
p1915
(dp1916
g3
g43
sg44
g43
ssS'83200'
p1917
(dp1918
g3
F43.1663658
sg4
F5.9304039
ssS'73501'
p1919
(dp1920
g3
F34.5618456
sg4
F-98.2431747
ssS'76108'
p1921
(dp1922
g3
g43
sg44
g43
ssS'18160'
p1923
(dp1924
g3
F46.997948
sg4
F2.818766
ssS'67301'
p1925
(dp1926
g3
F37.1996252
sg4
F-95.77212039999999
ssS'76513'
p1927
(dp1928
g3
F31.0673097
sg4
F-97.5030669
ssS'78736'
p1929
(dp1930
g3
F30.25208559999999
sg4
F-97.9483898
ssS'30041'
p1931
(dp1932
g3
F34.2000834
sg4
F-84.0907246
ssS'76101'
p1933
(dp1934
g3
F32.7465982
sg4
F-97.3291991
ssS'72099'
p1935
(dp1936
g3
F34.901533
sg4
F-92.1425692
ssS'30045'
p1937
(dp1938
g3
F33.9255183
sg4
F-83.9214896
ssS'59546'
p1939
(dp1940
g3
F47.7897615
sg4
F-108.5387587
ssS'33801'
p1941
(dp1942
g3
F28.0486111
sg4
F-81.89890799999999
ssS'30290'
p1943
(dp1944
g3
F33.4664681
sg4
F-84.59557319999999
ssS'59014'
p1945
(dp1946
g3
F45.2957202
sg4
F-108.9140817
ssS'22546'
p1947
(dp1948
g3
F37.93447159999999
sg4
F-77.4242972
ssS'59540'
p1949
(dp1950
g3
F48.550974
sg4
F-110.5443121
ssS'37064'
p1951
(dp1952
g3
F35.89872340000001
sg4
F-86.96240859999999
ssS'37854'
p1953
(dp1954
g3
F35.8643916
sg4
F-84.7106567
ssS'92408'
p1955
(dp1956
g3
F34.0868517
sg4
F-117.2617329
ssS'73112'
p1957
(dp1958
g3
F35.5135639
sg4
F-97.5788975
ssS'14580'
p1959
(dp1960
g3
F43.23236379999999
sg4
F-77.4472495
ssS'97918'
p1961
(dp1962
g3
F44.0179311
sg4
F-117.3462566
ssS'24382'
p1963
(dp1964
g3
F36.9220162
sg4
F-81.1196075
ssS'14469'
p1965
(dp1966
g3
g43
sg44
g43
ssS'28027'
p1967
(dp1968
g3
F35.4002721
sg4
F-80.6548882
ssS'87634'
p1969
(dp1970
g3
F47.8537281
sg4
F10.4380868
ssS'50273'
p1971
(dp1972
g3
F41.3308893
sg4
F-94.028678
ssS'11101'
p1973
(dp1974
g3
F40.7443091
sg4
F-73.9418603
ssS'14467'
p1975
(dp1976
g3
g43
sg44
g43
ssS'78641'
p1977
(dp1978
g3
F30.5390145
sg4
F-97.9374948
ssS'78642'
p1979
(dp1980
g3
F30.6761971
sg4
F-97.9374948
ssS'30342'
p1981
(dp1982
g3
F33.8856615
sg4
F-84.3699767
ssS'29905'
p1983
(dp1984
g3
F32.34977
sg4
F-80.67895
ssS'83706'
p1985
(dp1986
g3
F43.5921208
sg4
F-116.1933302
ssS'83705'
p1987
(dp1988
g3
F43.5698551
sg4
F-116.2249298
ssS'30349'
p1989
(dp1990
g3
F33.620038
sg4
F-84.5327038
ssS'83709'
p1991
(dp1992
g3
F43.5516566
sg4
F-116.29879
ssS'31216'
p1993
(dp1994
g3
F32.7180396
sg4
F-83.6986568
ssS'66801'
p1995
(dp1996
g3
F38.3636133
sg4
F-96.19513200000002
ssS'14461'
p1997
(dp1998
g3
g43
sg44
g43
ssS'31562'
p1999
(dp2000
g3
g43
sg44
g43
ssS'67410'
p2001
(dp2002
g3
F38.9726281
sg4
F-97.2221421
ssS'76200'
p2003
(dp2004
g3
F47.0046682
sg4
F-123.4294193
ssS'34104'
p2005
(dp2006
g3
F26.1527657
sg4
F-81.7404134
ssS'47714'
p2007
(dp2008
g3
F37.9632116
sg4
F-87.5296943
ssS'31400'
p2009
(dp2010
g3
F43.5611027
sg4
F1.4531355
ssS'31405'
p2011
(dp2012
g3
F32.0371137
sg4
F-81.1747498
ssS'35040'
p2013
(dp2014
g3
F33.1034486
sg4
F-86.72151749999999
ssS'47713'
p2015
(dp2016
g3
F37.9584319
sg4
F-87.5544182
ssS'25427'
p2017
(dp2018
g3
F39.5113324
sg4
F-78.0880129
ssS'89018'
p2019
(dp2020
g3
F36.581681
sg4
F-115.6983424
ssS'20132'
p2021
(dp2022
g3
F39.1866437
sg4
F-77.7223162
ssS'27709'
p2023
(dp2024
g3
F35.8908636
sg4
F-78.8665733
ssS'93721'
p2025
(dp2026
g3
F36.7337663
sg4
F-119.7845829
ssS'77351'
p2027
(dp2028
g3
F30.670725
sg4
F-94.7691586
ssS'89406'
p2029
(dp2030
g3
F39.4748735
sg4
F-118.777043
ssS'38300'
p2031
(dp2032
g3
F45.39045300000001
sg4
F5.191047
ssS'98382'
p2033
(dp2034
g3
g43
sg44
g43
ssS'11779'
p2035
(dp2036
g3
F40.8169046
sg4
F-73.1231585
ssS'28002'
p2037
(dp2038
g3
F35.3481309
sg4
F-80.1982494
ssS'14513'
p2039
(dp2040
g3
F43.0764083
sg4
F-77.0794705
ssS'14510'
p2041
(dp2042
g3
F42.668675
sg4
F-77.9053182
ssS'83702'
p2043
(dp2044
g3
F43.6624385
sg4
F-116.1630431
ssS'95216'
p2045
(dp2046
g3
F44.952117
sg4
F34.102417
ssS'95961'
p2047
(dp2048
g3
F39.0375178
sg4
F-121.5598345
ssS'95215'
p2049
(dp2050
g3
F37.9434927
sg4
F-121.1481284
ssS'95212'
p2051
(dp2052
g3
F38.0445015
sg4
F-121.2282958
ssS'59301'
p2053
(dp2054
g3
F46.274766
sg4
F-105.7633922
ssS'95210'
p2055
(dp2056
g3
F38.0434058
sg4
F-121.2969674
ssS'14519'
p2057
(dp2058
g3
F43.2550689
sg4
F-77.3094674
ssS'47620'
p2059
(dp2060
g3
F37.9395358
sg4
F-87.9530849
ssS'79606'
p2061
(dp2062
g3
F32.3560371
sg4
F-99.8348146
ssS'94587'
p2063
(dp2064
g3
F37.5952304
sg4
F-122.043969
ssS'97309'
p2065
(dp2066
g3
F44.93
sg4
F-123.01
ssS'67464'
p2067
(dp2068
g3
F38.57525160000001
sg4
F-97.8939317
ssS'50801'
p2069
(dp2070
g3
F41.0781268
sg4
F-94.35651299999999
ssS'12158'
p2071
(dp2072
g3
F42.5474845
sg4
F-73.8066163
ssS'91340'
p2073
(dp2074
g3
F34.2913046
sg4
F-118.4338345
ssS'73705'
p2075
(dp2076
g3
F36.3385564
sg4
F-97.9034588
ssS'25802'
p2077
(dp2078
g3
F37.78
sg4
F-81.19
ssS'28725'
p2079
(dp2080
g3
F35.375319
sg4
F-83.26699150000002
ssS'95828'
p2081
(dp2082
g3
F38.4929881
sg4
F-121.3884671
ssS'22656'
p2083
(dp2084
g3
F39.220492
sg4
F-78.09371709999999
ssS'28803'
p2085
(dp2086
g3
F35.56714230000001
sg4
F-82.5437614
ssS'78646'
p2087
(dp2088
g3
F30.5687175
sg4
F-97.8487305
ssS'31313'
p2089
(dp2090
g3
F31.8305871
sg4
F-81.6254283
ssS'84750'
p2091
(dp2092
g3
F38.4132233
sg4
F-112.2264794
ssS'43061'
p2093
(dp2094
g3
F40.2512497
sg4
F-83.1863358
ssS'32566'
p2095
(dp2096
g3
F30.46777519999999
sg4
F-86.8822445
ssS'35266'
p2097
(dp2098
g3
F33.44
sg4
F-86.78999999999999
ssS'43202'
p2099
(dp2100
g3
F40.0215545
sg4
F-83.0092803
ssS'31746'
p2101
(dp2102
g3
F-19.811614
sg4
F-43.931756
ssS'13204'
p2103
(dp2104
g3
F43.0513668
sg4
F-76.1841701
ssS'43206'
p2105
(dp2106
g3
F39.9402572
sg4
F-82.9743495
ssS'43207'
p2107
(dp2108
g3
F39.9119721
sg4
F-82.9716617
ssS'93613'
p2109
(dp2110
g3
F36.82
sg4
F-119.71
ssS'34743'
p2111
(dp2112
g3
g43
sg44
g43
ssS'88330'
p2113
(dp2114
g3
F32.8440404
sg4
F-106.099291
ssS'34745'
p2115
(dp2116
g3
F28.322781
sg4
F-81.39127719999999
ssS'34744'
p2117
(dp2118
g3
F28.2923689
sg4
F-81.32893969999999
ssS'77501'
p2119
(dp2120
g3
F29.6932797
sg4
F-95.2002468
ssS'89129'
p2121
(dp2122
g3
F36.2330997
sg4
F-115.2719048
ssS'32805'
p2123
(dp2124
g3
F28.5345501
sg4
F-81.4004227
ssS'32806'
p2125
(dp2126
g3
F28.5085825
sg4
F-81.3564411
ssS'92337'
p2127
(dp2128
g3
F34.0482749
sg4
F-117.4438924
ssS'32800'
p2129
(dp2130
g3
F43.8481397
sg4
F0.1307797
ssS'32801'
p2131
(dp2132
g3
F28.5416658
sg4
F-81.37568619999999
ssS'32969'
p2133
(dp2134
g3
F27.6391748
sg4
F-80.5012934
ssS'89081'
p2135
(dp2136
g3
F36.266572
sg4
F-115.0999753
ssS'32809'
p2137
(dp2138
g3
F28.4588856
sg4
F-81.3949264
ssS'48843'
p2139
(dp2140
g3
F42.5656204
sg4
F-83.91089680000002
ssS'11354'
p2141
(dp2142
g3
F40.7699016
sg4
F-73.8272029
ssS'66027'
p2143
(dp2144
g3
F39.3514463
sg4
F-94.9247074
ssS'78217'
p2145
(dp2146
g3
F29.53896599999999
sg4
F-98.42390549999999
ssS'97304'
p2147
(dp2148
g3
F45.0025342
sg4
F-123.1019198
ssS'61327'
p2149
(dp2150
g3
F41.218494
sg4
F-89.3037147
ssS'92623'
p2151
(dp2152
g3
F33.684587
sg4
F-117.83188
ssS'50111'
p2153
(dp2154
g3
g43
sg44
g43
ssS'50501'
p2155
(dp2156
g3
F42.5136902
sg4
F-94.19234000000002
ssS'83402'
p2157
(dp2158
g3
F43.5277581
sg4
F-112.1982126
ssS'66781'
p2159
(dp2160
g3
F37.2996437
sg4
F-94.7174062
ssS'22030'
p2161
(dp2162
g3
F38.8454321
sg4
F-77.3209555
ssS'31409'
p2163
(dp2164
g3
F31.9980235
sg4
F-81.18026189999999
ssS'00960'
p2165
(dp2166
g3
F18.3930642
sg4
F-66.15481679999999
ssS'78214'
p2167
(dp2168
g3
F29.3172731
sg4
F-98.4677851
ssS'12601'
p2169
(dp2170
g3
F41.7165144
sg4
F-73.9242251
ssS'74021'
p2171
(dp2172
g3
F36.3591153
sg4
F-95.8353837
ssS'24901'
p2173
(dp2174
g3
F37.8253221
sg4
F-80.47714719999999
ssS'65202'
p2175
(dp2176
g3
F39.0013395
sg4
F-92.3128326
ssS'25701'
p2177
(dp2178
g3
F38.3751952
sg4
F-82.3994214
ssS'19612'
p2179
(dp2180
g3
F40.3660341
sg4
F-75.9136608
ssS'74029'
p2181
(dp2182
g3
F36.832666
sg4
F-95.8353837
ssS'19610'
p2183
(dp2184
g3
F40.3380072
sg4
F-75.9753516
ssS'65205'
p2185
(dp2186
g3
F38.9659893
sg4
F-92.374934
ssS'12630'
p2187
(dp2188
g3
F-6.3455471
sg4
F106.8119382
ssS'77001'
p2189
(dp2190
g3
F29.77
sg4
F-95.36999999999999
ssS'49203'
p2191
(dp2192
g3
F42.2085364
sg4
F-84.406761
ssS'35661'
p2193
(dp2194
g3
F34.7830467
sg4
F-87.5692461
ssS'77006'
p2195
(dp2196
g3
F29.7431508
sg4
F-95.38871999999999
ssS'89890'
p2197
(dp2198
g3
F22.696929
sg4
F-98.98457959999999
ssS'19057'
p2199
(dp2200
g3
F40.1344021
sg4
F-74.8565613
ssS'22134'
p2201
(dp2202
g3
F38.5198658
sg4
F-77.3152116
ssS'34106'
p2203
(dp2204
g3
F26.1623855
sg4
F-81.7910587
ssS'43720'
p2205
(dp2206
g3
F39.8096634
sg4
F-81.87706709999999
ssS'43725'
p2207
(dp2208
g3
F40.042095
sg4
F-81.5596427
ssS'98948'
p2209
(dp2210
g3
F46.2144734
sg4
F-120.2960789
ssS'10994'
p2211
(dp2212
g3
F41.09411619999999
sg4
F-73.977126
ssS'31961'
p2213
(dp2214
g3
g43
sg44
g43
ssS'23814'
p2215
(dp2216
g3
F45.9171069
sg4
F9.467651499999999
ssS'11500'
p2217
(dp2218
g3
g43
sg44
g43
ssS'47598'
p2219
(dp2220
g3
F38.3886155
sg4
F-87.20209899999999
ssS'31401'
p2221
(dp2222
g3
F32.081259
sg4
F-81.0809848
ssS'48722'
p2223
(dp2224
g3
F43.3467932
sg4
F-83.8366958
ssS'32245'
p2225
(dp2226
g3
F30.2537634
sg4
F-81.5841497
ssS'92051'
p2227
(dp2228
g3
g43
sg44
g43
ssS'82727'
p2229
(dp2230
g3
F44.31016229999999
sg4
F-105.2492677
ssS'51221'
p2231
(dp2232
g3
F45.2930605
sg4
F14.5267494
ssS'65665'
p2233
(dp2234
g3
F19.8286399
sg4
F41.7258038
ssS'65336'
p2235
(dp2236
g3
F38.7873793
sg4
F-93.56102600000001
ssS'98438'
p2237
(dp2238
g3
F47.1145301
sg4
F-122.4793731
ssS'25414'
p2239
(dp2240
g3
F39.2536087
sg4
F-77.8710285
ssS'60555'
p2241
(dp2242
g3
F41.83635100000001
sg4
F-88.21690269999999
ssS'45202'
p2243
(dp2244
g3
F39.1031971
sg4
F-84.5064881
ssS'82941'
p2245
(dp2246
g3
F42.9178894
sg4
F-109.8067916
ssS'24946'
p2247
(dp2248
g3
F38.2302069
sg4
F-80.2990246
ssS'64132'
p2249
(dp2250
g3
F38.992935
sg4
F-94.55212739999999
ssS'39501'
p2251
(dp2252
g3
F30.3981324
sg4
F-89.10387829999999
ssS'21133'
p2253
(dp2254
g3
F39.3766768
sg4
F-76.8086617
ssS'32181'
p2255
(dp2256
g3
F29.4881909
sg4
F-81.5925427
ssS'17601'
p2257
(dp2258
g3
F40.0720931
sg4
F-76.30583279999999
ssS'31404'
p2259
(dp2260
g3
F32.0563741
sg4
F-81.0478643
ssS'25387'
p2261
(dp2262
g3
F38.3834068
sg4
F-81.6747295
ssS'33173'
p2263
(dp2264
g3
F25.7038331
sg4
F-80.360297
ssS'74112'
p2265
(dp2266
g3
F36.1449378
sg4
F-95.90399440000002
ssS'32069'
p2267
(dp2268
g3
F43.420581
sg4
F0.846328
ssS'74115'
p2269
(dp2270
g3
F36.1933771
sg4
F-95.9092754
ssS'74116'
p2271
(dp2272
g3
F36.1964847
sg4
F-95.8459341
ssS'12188'
p2273
(dp2274
g3
g43
sg44
g43
ssS'49079'
p2275
(dp2276
g3
F42.2226787
sg4
F-85.9100089
ssS'32063'
p2277
(dp2278
g3
F30.2668465
sg4
F-82.10606829999999
ssS'94244'
p2279
(dp2280
g3
F38.58
sg4
F-121.49
ssS'19901'
p2281
(dp2282
g3
F39.2081349
sg4
F-75.45777749999999
ssS'65725'
p2283
(dp2284
g3
F37.3905533
sg4
F-93.2885455
ssS'32065'
p2285
(dp2286
g3
F30.1712245
sg4
F-81.8552196
ssS'31119'
p2287
(dp2288
g3
F33.8524536
sg4
F-84.3679295
ssS'43537'
p2289
(dp2290
g3
F41.5683175
sg4
F-83.6986568
ssS'43530'
p2291
(dp2292
g3
F41.3238354
sg4
F-84.28745710000001
ssS'30081'
p2293
(dp2294
g3
F33.88
sg4
F-84.50999999999999
ssS'26201'
p2295
(dp2296
g3
F38.9524513
sg4
F-80.23213129999999
ssS'85218'
p2297
(dp2298
g3
g43
sg44
g43
ssS'17055'
p2299
(dp2300
g3
F40.1732512
sg4
F-76.9988669
ssS'43538'
p2301
(dp2302
g3
F26.8774416
sg4
F38.0102284
ssS'85212'
p2303
(dp2304
g3
F33.3312297
sg4
F-111.642224
ssS'32405'
p2305
(dp2306
g3
F30.1917155
sg4
F-85.6743082
ssS'27235'
p2307
(dp2308
g3
F36.0737937
sg4
F-80.0199562
ssS'32175'
p2309
(dp2310
g3
F29.28956969999999
sg4
F-81.0461399
ssS'10927'
p2311
(dp2312
g3
F41.1929636
sg4
F-73.94773839999999
ssS'98058'
p2313
(dp2314
g3
F47.454
sg4
F-122.1101712
ssS'43437'
p2315
(dp2316
g3
F41.2575906
sg4
F-83.60424239999999
ssS'32407'
p2317
(dp2318
g3
F30.1957055
sg4
F-85.7974141
ssS'43026'
p2319
(dp2320
g3
F40.01616
sg4
F-83.1756188
ssS'19134'
p2321
(dp2322
g3
F39.9863531
sg4
F-75.1019942
ssS'11435'
p2323
(dp2324
g3
F40.7031635
sg4
F-73.8095574
ssS'38876'
p2325
(dp2326
g3
F34.1626895
sg4
F-88.22664340000001
ssS'77707'
p2327
(dp2328
g3
F30.05801529999999
sg4
F-94.1820961
ssS'17104'
p2329
(dp2330
g3
F40.255136
sg4
F-76.857682
ssS'17105'
p2331
(dp2332
g3
F40.26258809999999
sg4
F-76.8760597
ssS'48026'
p2333
(dp2334
g3
F42.5345798
sg4
F-82.9447782
ssS'53188'
p2335
(dp2336
g3
F43.0165459
sg4
F-88.29476749999999
ssS'14425'
p2337
(dp2338
g3
F42.98204399999999
sg4
F-77.3439283
ssS'53066'
p2339
(dp2340
g3
F43.1067452
sg4
F-88.49849909999999
ssS'46214'
p2341
(dp2342
g3
F39.7884076
sg4
F-86.28695069999999
ssS'77701'
p2343
(dp2344
g3
F30.0780459
sg4
F-94.09510379999999
ssS'77353'
p2345
(dp2346
g3
F30.19
sg4
F-95.67999999999999
ssS'32114'
p2347
(dp2348
g3
F29.1987957
sg4
F-81.04234290000001
ssS'32115'
p2349
(dp2350
g3
F29.22700799999999
sg4
F-81.0083559
ssS'32112'
p2351
(dp2352
g3
F29.4040686
sg4
F-81.5377013
ssS'16825'
p2353
(dp2354
g3
F40.9845698
sg4
F-78.3066727
ssS'60175'
p2355
(dp2356
g3
F41.942223
sg4
F-88.39625219999999
ssS'17513'
p2357
(dp2358
g3
F-22.2023435
sg4
F-49.9379715
ssS'37388'
p2359
(dp2360
g3
F35.352762
sg4
F-86.1955169
ssS'49080'
p2361
(dp2362
g3
g43
sg44
g43
ssS'33608'
p2363
(dp2364
g3
F27.87
sg4
F-82.50999999999999
ssS'12111'
p2365
(dp2366
g3
F44.442564
sg4
F2.370077
ssS'52403'
p2367
(dp2368
g3
F41.97810940000001
sg4
F-91.5886966
ssS'70037'
p2369
(dp2370
g3
F29.7310184
sg4
F-90.0279867
ssS'21215'
p2371
(dp2372
g3
F39.3416271
sg4
F-76.68169619999999
ssS'30064'
p2373
(dp2374
g3
g43
sg44
g43
ssS'41517'
p2375
(dp2376
g3
F37.188851
sg4
F-82.601402
ssS'74200'
p2377
(dp2378
g3
F46.3402239
sg4
F6.5201856
ssS'85369'
p2379
(dp2380
g3
F32.687169
sg4
F-114.6246981
ssS'85283'
p2381
(dp2382
g3
F33.3684114
sg4
F-111.9343636
ssS'43150'
p2383
(dp2384
g3
F39.7646554
sg4
F-82.42110249999999
ssS'33604'
p2385
(dp2386
g3
F28.0165404
sg4
F-82.45902819999999
ssS'32189'
p2387
(dp2388
g3
F29.560052
sg4
F-81.63638689999999
ssS'46383'
p2389
(dp2390
g3
g43
sg44
g43
ssS'82130'
p2391
(dp2392
g3
F44.19647
sg4
F0.9194269999999999
ssS'99807'
p2393
(dp2394
g3
g43
sg44
g43
ssS'40061'
p2395
(dp2396
g3
g43
sg44
g43
ssS'85365'
p2397
(dp2398
g3
F33.2276646
sg4
F-114.0488007
ssS'49333'
p2399
(dp2400
g3
F42.6764161
sg4
F-85.45818589999999
ssS'27215'
p2401
(dp2402
g3
F36.0955555
sg4
F-79.4379412
ssS'49337'
p2403
(dp2404
g3
F43.4225427
sg4
F-85.7051116
ssS'45631'
p2405
(dp2406
g3
F38.8726188
sg4
F-82.1931149
ssS'18202'
p2407
(dp2408
g3
F40.95117210000001
sg4
F-76.0217831
ssS'48201'
p2409
(dp2410
g3
F42.348495
sg4
F-83.0602998
ssS'27405'
p2411
(dp2412
g3
F36.1155274
sg4
F-79.7512033
ssS'84096'
p2413
(dp2414
g3
F40.4847454
sg4
F-112.0714835
ssS'97408'
p2415
(dp2416
g3
F44.1366256
sg4
F-123.0647572
ssS'45324'
p2417
(dp2418
g3
F39.816412
sg4
F-84.0061661
ssS'98402'
p2419
(dp2420
g3
F47.2529105
sg4
F-122.4417426
ssS'21716'
p2421
(dp2422
g3
F39.3143818
sg4
F-77.6249734
ssS'49230'
p2423
(dp2424
g3
F42.1099888
sg4
F-84.20679919999999
ssS'49233'
p2425
(dp2426
g3
F42.0675132
sg4
F-84.3436881
ssS'75086'
p2427
(dp2428
g3
F33.02
sg4
F-96.69999999999999
ssS'52601'
p2429
(dp2430
g3
F40.8522544
sg4
F-91.1161166
ssS'13340'
p2431
(dp2432
g3
g43
sg44
g43
ssS'75243'
p2433
(dp2434
g3
F32.9087285
sg4
F-96.7386946
ssS'88210'
p2435
(dp2436
g3
F32.83829
sg4
F-104.4097593
ssS'75241'
p2437
(dp2438
g3
F32.6604239
sg4
F-96.76010570000001
ssS'67056'
p2439
(dp2440
g3
F38.0019199
sg4
F-97.5044752
ssS'84005'
p2441
(dp2442
g3
F40.3363082
sg4
F-111.9880199
ssS'75244'
p2443
(dp2444
g3
F32.9312475
sg4
F-96.84046
ssS'84009'
p2445
(dp2446
g3
F40.5622956
sg4
F-111.9998294
ssS'84008'
p2447
(dp2448
g3
F40.02
sg4
F-109.18
ssS'75160'
p2449
(dp2450
g3
F32.7630226
sg4
F-96.30134319999999
ssS'75161'
p2451
(dp2452
g3
F32.7693613
sg4
F-96.17391160000001
ssS'59759'
p2453
(dp2454
g3
F45.9207297
sg4
F-112.194479
ssS'67502'
p2455
(dp2456
g3
F38.1116209
sg4
F-97.9374948
ssS'55410'
p2457
(dp2458
g3
F44.9191183
sg4
F-93.32378240000001
ssS'12208'
p2459
(dp2460
g3
F42.6547387
sg4
F-73.7889689
ssS'12209'
p2461
(dp2462
g3
F42.6356581
sg4
F-73.7889689
ssS'80018'
p2463
(dp2464
g3
F39.70577710000001
sg4
F-104.6937674
ssS'12204'
p2465
(dp2466
g3
F42.68433760000001
sg4
F-73.7301331
ssS'12205'
p2467
(dp2468
g3
F42.722661
sg4
F-73.8301437
ssS'12206'
p2469
(dp2470
g3
F42.6757698
sg4
F-73.7860276
ssS'67052'
p2471
(dp2472
g3
F37.67072660000001
sg4
F-97.5897372
ssS'12201'
p2473
(dp2474
g3
F42.65
sg4
F-73.75999999999999
ssS'12202'
p2475
(dp2476
g3
F42.6322463
sg4
F-73.7654367
ssS'12203'
p2477
(dp2478
g3
g43
sg44
g43
ssS'58220'
p2479
(dp2480
g3
F48.8229727
sg4
F-97.7256766
ssS'14852'
p2481
(dp2482
g3
F42.49574339999999
sg4
F-76.4690538
ssS'92243'
p2483
(dp2484
g3
F32.7538822
sg4
F-115.5917918
ssS'14857'
p2485
(dp2486
g3
F42.5147258
sg4
F-76.9280776
ssS'85713'
p2487
(dp2488
g3
F32.1922127
sg4
F-110.9923904
ssS'48111'
p2489
(dp2490
g3
F42.1894357
sg4
F-83.4856913
ssS'36582'
p2491
(dp2492
g3
F30.49179719999999
sg4
F-88.14865700000001
ssS'76708'
p2493
(dp2494
g3
F31.6185967
sg4
F-97.2113605
ssS'59728'
p2495
(dp2496
g3
F46.4912961
sg4
F-112.4504974
ssS'54601'
p2497
(dp2498
g3
F43.8041647
sg4
F-91.15449629999999
ssS'67277'
p2499
(dp2500
g3
F37.67
sg4
F-97.42999999999999
ssS'33733'
p2501
(dp2502
g3
F27.77
sg4
F-82.67999999999999
ssS'46628'
p2503
(dp2504
g3
F41.7217136
sg4
F-86.317392
ssS'10108'
p2505
(dp2506
g3
F40.7545309
sg4
F-73.981138
ssS'10455'
p2507
(dp2508
g3
F40.8147803
sg4
F-73.90805809999999
ssS'63399'
p2509
(dp2510
g3
F45.643515
sg4
F2.628036
ssS'11201'
p2511
(dp2512
g3
F40.6986772
sg4
F-73.9859414
ssS'22101'
p2513
(dp2514
g3
F38.9339378
sg4
F-77.177324
ssS'10101'
p2515
(dp2516
g3
F40.7637828
sg4
F-73.9859116
ssS'63390'
p2517
(dp2518
g3
F38.7950192
sg4
F-91.0394635
ssS'45801'
p2519
(dp2520
g3
F40.786903
sg4
F-84.0801613
ssS'60605'
p2521
(dp2522
g3
F41.8703314
sg4
F-87.62357420000001
ssS'83445'
p2523
(dp2524
g3
g43
sg44
g43
ssS'18951'
p2525
(dp2526
g3
F40.4458448
sg4
F-75.36453689999999
ssS'13088'
p2527
(dp2528
g3
g43
sg44
g43
ssS'39488'
p2529
(dp2530
g3
F46.599465
sg4
F5.511608
ssS'83835'
p2531
(dp2532
g3
F47.8008089
sg4
F-116.7008476
ssS'13084'
p2533
(dp2534
g3
g43
sg44
g43
ssS'60609'
p2535
(dp2536
g3
F41.8062766
sg4
F-87.6482474
ssS'98944'
p2537
(dp2538
g3
F46.5456939
sg4
F-119.6575454
ssS'54501'
p2539
(dp2540
g3
F45.6366479
sg4
F-89.3462193
ssS'36108'
p2541
(dp2542
g3
F32.3287007
sg4
F-86.438974
ssS'62780'
p2543
(dp2544
g3
F50.235664
sg4
F3.093905
ssS'78258'
p2545
(dp2546
g3
F29.6451457
sg4
F-98.47327179999999
ssS'90720'
p2547
(dp2548
g3
F33.7976003
sg4
F-118.0712981
ssS'59808'
p2549
(dp2550
g3
F46.9870522
sg4
F-114.1335617
ssS'37043'
p2551
(dp2552
g3
F36.5128173
sg4
F-87.2419299
ssS'59806'
p2553
(dp2554
g3
F46.85
sg4
F-114.01
ssS'13161'
p2555
(dp2556
g3
F59.30563489999999
sg4
F18.1537034
ssS'59803'
p2557
(dp2558
g3
F46.7696119
sg4
F-114.0028043
ssS'59802'
p2559
(dp2560
g3
F46.9539821
sg4
F-113.9120099
ssS'59801'
p2561
(dp2562
g3
F46.8500521
sg4
F-113.9869641
ssS'90058'
p2563
(dp2564
g3
F34.00637469999999
sg4
F-118.2234229
ssS'33559'
p2565
(dp2566
g3
F28.1537767
sg4
F-82.4156829
ssS'29718'
p2567
(dp2568
g3
F34.6335004
sg4
F-80.3435908
ssS'67543'
p2569
(dp2570
g3
F37.8677624
sg4
F-97.8068851
ssS'84532'
p2571
(dp2572
g3
F38.5719944
sg4
F-109.4735066
ssS'33928'
p2573
(dp2574
g3
F26.4273206
sg4
F-81.7239979
ssS'37914'
p2575
(dp2576
g3
F35.9834366
sg4
F-83.7942551
ssS'33881'
p2577
(dp2578
g3
F28.0600916
sg4
F-81.7021049
ssS'44341'
p2579
(dp2580
g3
F51.3194076
sg4
F24.2639521
ssS'30215'
p2581
(dp2582
g3
F33.3822079
sg4
F-84.4592701
ssS'33556'
p2583
(dp2584
g3
F28.1222486
sg4
F-82.5834947
ssS'29404'
p2585
(dp2586
g3
F32.9006932
sg4
F-80.0479039
ssS'87134'
p2587
(dp2588
g3
F45.6971115
sg4
F1.6832248
ssS'27834'
p2589
(dp2590
g3
F35.6450428
sg4
F-77.4242972
ssS'86402'
p2591
(dp2592
g3
F35.1959089
sg4
F-114.0336385
ssS'14599'
p2593
(dp2594
g3
F49.08374629999999
sg4
F0.3375179
ssS'28533'
p2595
(dp2596
g3
F34.9371962
sg4
F-76.8121419
ssS'41551'
p2597
(dp2598
g3
F59.3248634
sg4
F27.3926873
ssS'94577'
p2599
(dp2600
g3
F37.7199247
sg4
F-122.1689284
ssS'43600'
p2601
(dp2602
g3
F2.9198401
sg4
F101.780868
ssS'45938'
p2603
(dp2604
g3
F26.9287605
sg4
F38.6005328
ssS'76667'
p2605
(dp2606
g3
F31.6695879
sg4
F-96.47165799999999
ssS'75203'
p2607
(dp2608
g3
g43
sg44
g43
ssS'29752'
p2609
(dp2610
g3
F36.7847921
sg4
F-4.003152099999999
ssS'33837'
p2611
(dp2612
g3
F28.2037477
sg4
F-81.5815776
ssS'99705'
p2613
(dp2614
g3
F64.7688726
sg4
F-147.3534388
ssS'27401'
p2615
(dp2616
g3
F36.0676041
sg4
F-79.7568107
ssS'62234'
p2617
(dp2618
g3
F38.6844314
sg4
F-89.9720133
ssS'99703'
p2619
(dp2620
g3
F64.802185
sg4
F-147.625422
ssS'33637'
p2621
(dp2622
g3
F28.0473767
sg4
F-82.3611066
ssS'37212'
p2623
(dp2624
g3
F36.1390165
sg4
F-86.7969244
ssS'83236'
p2625
(dp2626
g3
F43.1831097
sg4
F-111.9463933
ssS'40937'
p2627
(dp2628
g3
g43
sg44
g43
ssS'37743'
p2629
(dp2630
g3
g43
sg44
g43
ssS'78627'
p2631
(dp2632
g3
F30.6240689
sg4
F-97.6874491
ssS'35611'
p2633
(dp2634
g3
F34.761354
sg4
F-87.0824045
ssS'47899'
p2635
(dp2636
g3
F43.9704382
sg4
F12.4867883
ssS'78742'
p2637
(dp2638
g3
F30.2406057
sg4
F-97.6602365
ssS'78745'
p2639
(dp2640
g3
F30.2153869
sg4
F-97.7960118
ssS'76113'
p2641
(dp2642
g3
F32.7465982
sg4
F-97.3291991
ssS'20120'
p2643
(dp2644
g3
F38.8629803
sg4
F-77.4816693
ssS'78746'
p2645
(dp2646
g3
F30.2962208
sg4
F-97.8299383
ssS'54035'
p2647
(dp2648
g3
F48.64385499999999
sg4
F6.805911999999999
ssS'14456'
p2649
(dp2650
g3
F42.8361156
sg4
F-76.9873477
ssS'50266'
p2651
(dp2652
g3
F41.5680235
sg4
F-93.8146526
ssS'14453'
p2653
(dp2654
g3
F43.0088921
sg4
F-77.4669843
ssS'33950'
p2655
(dp2656
g3
F26.912833
sg4
F-82.04839
ssS'11131'
p2657
(dp2658
g3
F42.938803
sg4
F2.1929599
ssS'14450'
p2659
(dp2660
g3
F43.0745542
sg4
F-77.4013403
ssS'33816'
p2661
(dp2662
g3
F43.2340828
sg4
F-6.4609998
ssS'14590'
p2663
(dp2664
g3
g43
sg44
g43
ssS'90016'
p2665
(dp2666
g3
F34.0255188
sg4
F-118.3520389
ssS'37090'
p2667
(dp2668
g3
F36.0758072
sg4
F-86.2970998
ssS'28031'
p2669
(dp2670
g3
F35.472468
sg4
F-80.8875861
ssS'71857'
p2671
(dp2672
g3
F33.7950246
sg4
F-93.3792057
ssS'17020'
p2673
(dp2674
g3
F40.4195605
sg4
F-77.04493269999999
ssS'27531'
p2675
(dp2676
g3
F35.3505693
sg4
F-77.9681544
ssS'14561'
p2677
(dp2678
g3
F42.7803784
sg4
F-77.17152279999999
ssS'28312'
p2679
(dp2680
g3
F34.9303695
sg4
F-78.72494689999999
ssS'28406'
p2681
(dp2682
g3
F34.24
sg4
F-77.95
ssS'39560'
p2683
(dp2684
g3
F30.3755788
sg4
F-89.1801225
ssS'34983'
p2685
(dp2686
g3
F27.3212214
sg4
F-80.3547286
ssS'34982'
p2687
(dp2688
g3
F27.3646705
sg4
F-80.3101684
ssS'34981'
p2689
(dp2690
g3
F27.3980151
sg4
F-80.37143259999999
ssS'34240'
p2691
(dp2692
g3
F27.3275324
sg4
F-82.33433749999999
ssS'30357'
p2693
(dp2694
g3
F33.7842855
sg4
F-84.387892
ssS'83301'
p2695
(dp2696
g3
F42.3986045
sg4
F-114.5613507
ssS'83714'
p2697
(dp2698
g3
F43.7235259
sg4
F-116.2692976
ssS'83715'
p2699
(dp2700
g3
F43.5676174
sg4
F-116.21371
ssS'78109'
p2701
(dp2702
g3
F29.4476314
sg4
F-98.3197946
ssS'59404'
p2703
(dp2704
g3
F47.5359809
sg4
F-111.4124518
ssS'17241'
p2705
(dp2706
g3
F40.1679706
sg4
F-77.4013403
ssS'49246'
p2707
(dp2708
g3
F42.1348269
sg4
F-84.5117321
ssS'77340'
p2709
(dp2710
g3
F30.6631264
sg4
F-95.5407299
ssS'20003'
p2711
(dp2712
g3
F38.8831372
sg4
F-76.9902276
ssS'23665'
p2713
(dp2714
g3
F37.0860239
sg4
F-76.3579401
ssS'89825'
p2715
(dp2716
g3
F41.8916108
sg4
F-114.7024179
ssS'14810'
p2717
(dp2718
g3
F42.3378553
sg4
F-77.355413
ssS'31416'
p2719
(dp2720
g3
F32.0056072
sg4
F-81.0973279
ssS'31415'
p2721
(dp2722
g3
F32.0730973
sg4
F-81.1251235
ssS'59270'
p2723
(dp2724
g3
F47.5771383
sg4
F-104.0205574
ssS'32277'
p2725
(dp2726
g3
F30.3776024
sg4
F-81.5870604
ssS'44864'
p2727
(dp2728
g3
F40.7236792
sg4
F-82.32348429999999
ssS'67460'
p2729
(dp2730
g3
F38.3611897
sg4
F-97.654811
ssS'18103'
p2731
(dp2732
g3
F40.5719198
sg4
F-75.4927278
ssS'72901'
p2733
(dp2734
g3
F35.3704608
sg4
F-94.4130648
ssS'95826'
p2735
(dp2736
g3
F38.5499634
sg4
F-121.3884671
ssS'92040'
p2737
(dp2738
g3
F32.8765334
sg4
F-116.9145901
ssS'12845'
p2739
(dp2740
g3
g43
sg44
g43
ssS'14522'
p2741
(dp2742
g3
F43.0539047
sg4
F-77.2175223
ssS'92509'
p2743
(dp2744
g3
F33.9996052
sg4
F-117.4321452
ssS'92508'
p2745
(dp2746
g3
F33.890925
sg4
F-117.3263893
ssS'92136'
p2747
(dp2748
g3
F32.6833364
sg4
F-117.1220632
ssS'14526'
p2749
(dp2750
g3
F43.1478006
sg4
F-77.4587239
ssS'11005'
p2751
(dp2752
g3
F40.7568752
sg4
F-73.71100779999999
ssS'11004'
p2753
(dp2754
g3
F40.7430884
sg4
F-73.7095365
ssS'44905'
p2755
(dp2756
g3
F40.7632194
sg4
F-82.4644445
ssS'11009'
p2757
(dp2758
g3
F43.2537639
sg4
F2.177835
ssS'94596'
p2759
(dp2760
g3
F37.8824054
sg4
F-122.026918
ssS'38118'
p2761
(dp2762
g3
F35.0277847
sg4
F-89.9346659
ssS'38141'
p2763
(dp2764
g3
F35.005666
sg4
F-89.84113819999999
ssS'30074'
p2765
(dp2766
g3
F33.75
sg4
F-84.13
ssS'35124'
p2767
(dp2768
g3
F33.2956275
sg4
F-86.7718017
ssS'77836'
p2769
(dp2770
g3
F30.58537339999999
sg4
F-96.7065914
ssS'29625'
p2771
(dp2772
g3
F34.583875
sg4
F-82.79941939999999
ssS'72903'
p2773
(dp2774
g3
F35.3447622
sg4
F-94.3667907
ssS'67491'
p2775
(dp2776
g3
F38.366241
sg4
F-97.8939317
ssS'77833'
p2777
(dp2778
g3
F30.2352956
sg4
F-96.365157
ssS'94598'
p2779
(dp2780
g3
F37.89618249999999
sg4
F-121.9814354
ssS'76528'
p2781
(dp2782
g3
F31.4346919
sg4
F-97.8286368
ssS'74990'
p2783
(dp2784
g3
F-16.8346768
sg4
F-49.2360011
ssS'23320'
p2785
(dp2786
g3
F36.7578013
sg4
F-76.2131474
ssS'77080'
p2787
(dp2788
g3
F29.8183406
sg4
F-95.5249863
ssS'66049'
p2789
(dp2790
g3
F38.9684867
sg4
F-95.37301760000001
ssS'60540'
p2791
(dp2792
g3
F41.7606321
sg4
F-88.1437782
ssS'61020'
p2793
(dp2794
g3
F42.094551
sg4
F-89.1134166
ssS'88280'
p2795
(dp2796
g3
F48.28875799999999
sg4
F6.287771999999999
ssS'26531'
p2797
(dp2798
g3
F39.6073937
sg4
F-79.8918585
ssS'89502'
p2799
(dp2800
g3
F39.4835647
sg4
F-119.7310213
ssS'11347'
p2801
(dp2802
g3
F42.867645
sg4
F2.245549
ssS'44131'
p2803
(dp2804
g3
F41.3884635
sg4
F-81.65829939999999
ssS'72764'
p2805
(dp2806
g3
F36.1731365
sg4
F-94.0491077
ssS'67583'
p2807
(dp2808
g3
F37.7801956
sg4
F-98.46229869999999
ssS'43235'
p2809
(dp2810
g3
F40.1296424
sg4
F-83.025396
ssS'47000'
p2811
(dp2812
g3
F3.2511904
sg4
F101.5930268
ssS'86002'
p2813
(dp2814
g3
F35.1978341
sg4
F-111.6464261
ssS'31098'
p2815
(dp2816
g3
F32.6333472
sg4
F-83.581615
ssS'43230'
p2817
(dp2818
g3
F40.0388765
sg4
F-82.8748301
ssS'84403'
p2819
(dp2820
g3
F41.1859156
sg4
F-111.8926303
ssS'19116'
p2821
(dp2822
g3
F40.1145029
sg4
F-75.0085399
ssS'19118'
p2823
(dp2824
g3
F40.0703334
sg4
F-75.2070644
ssS'51432'
p2825
(dp2826
g3
F41.91228
sg4
F-95.1347372
ssS'27609'
p2827
(dp2828
g3
F35.8409242
sg4
F-78.62285039999999
ssS'99114'
p2829
(dp2830
g3
F48.6306003
sg4
F-117.7348303
ssS'32408'
p2831
(dp2832
g3
g43
sg44
g43
ssS'74804'
p2833
(dp2834
g3
F35.38837
sg4
F-96.9423844
ssS'72032'
p2835
(dp2836
g3
F35.0819701
sg4
F-92.3616203
ssS'36061'
p2837
(dp2838
g3
I32
sg4
F-85.75
ssS'32402'
p2839
(dp2840
g3
F30.1559032
sg4
F-85.6627702
ssS'32403'
p2841
(dp2842
g3
F30.073727
sg4
F-85.5920787
ssS'32404'
p2843
(dp2844
g3
g43
sg44
g43
ssS'34277'
p2845
(dp2846
g3
g43
sg44
g43
ssS'95901'
p2847
(dp2848
g3
F39.2392323
sg4
F-121.5141615
ssS'55374'
p2849
(dp2850
g3
F45.1867927
sg4
F-93.5912944
ssS'76010'
p2851
(dp2852
g3
F32.7272701
sg4
F-97.0767365
ssS'74056'
p2853
(dp2854
g3
F36.8720984
sg4
F-96.3226072
ssS'75501'
p2855
(dp2856
g3
F33.3922515
sg4
F-94.1309067
ssS'55379'
p2857
(dp2858
g3
F44.74026749999999
sg4
F-93.5205641
ssS'98493'
p2859
(dp2860
g3
F47.2528139
sg4
F-122.4443415
ssS'23433'
p2861
(dp2862
g3
F36.90967270000001
sg4
F-76.4736602
ssS'67204'
p2863
(dp2864
g3
F37.7803142
sg4
F-97.3624598
ssS'35674'
p2865
(dp2866
g3
F34.6429822
sg4
F-87.7566513
ssS'79768'
p2867
(dp2868
g3
F31.902384
sg4
F-102.338615
ssS'59538'
p2869
(dp2870
g3
F48.0281564
sg4
F-107.957781
ssS'77019'
p2871
(dp2872
g3
F29.7508512
sg4
F-95.4122817
ssS'31951'
p2873
(dp2874
g3
g43
sg44
g43
ssS'26287'
p2875
(dp2876
g3
F39.1801465
sg4
F-79.7624177
ssS'77015'
p2877
(dp2878
g3
F29.7690048
sg4
F-95.1744903
ssS'32583'
p2879
(dp2880
g3
F30.6076851
sg4
F-86.96240859999999
ssS'30324'
p2881
(dp2882
g3
F33.81842
sg4
F-84.3594626
ssS'60639'
p2883
(dp2884
g3
F41.9225138
sg4
F-87.7517295
ssS'46401'
p2885
(dp2886
g3
F41.5917517
sg4
F-87.317842
ssS'91729'
p2887
(dp2888
g3
F34.099175
sg4
F-117.5639339
ssS'93101'
p2889
(dp2890
g3
F34.420334
sg4
F-119.7107494
ssS'98604'
p2891
(dp2892
g3
F45.7999734
sg4
F-122.5510603
ssS'43735'
p2893
(dp2894
g3
F39.8502286
sg4
F-82.1217174
ssS'43302'
p2895
(dp2896
g3
F40.5518645
sg4
F-83.12200740000002
ssS'23801'
p2897
(dp2898
g3
F37.2384196
sg4
F-77.3381855
ssS'13760'
p2899
(dp2900
g3
g43
sg44
g43
ssS'76009'
p2901
(dp2902
g3
F32.3995508
sg4
F-97.2005806
ssS'55301'
p2903
(dp2904
g3
F45.2499294
sg4
F-93.6711641
ssS'32570'
p2905
(dp2906
g3
F30.8158292
sg4
F-87.0224442
ssS'55308'
p2907
(dp2908
g3
F45.4422699
sg4
F-93.8307464
ssS'51334'
p2909
(dp2910
g3
F43.4230145
sg4
F-94.7691586
ssS'32907'
p2911
(dp2912
g3
F28.0181548
sg4
F-80.68817179999999
ssS'48180'
p2913
(dp2914
g3
F42.2164077
sg4
F-83.2720082
ssS'19021'
p2915
(dp2916
g3
F40.0889972
sg4
F-74.89164579999999
ssS'82716'
p2917
(dp2918
g3
F44.4524167
sg4
F-105.582806
ssS'93304'
p2919
(dp2920
g3
F35.344108
sg4
F-119.0285355
ssS'75474'
p2921
(dp2922
g3
F32.9083601
sg4
F-96.0891032
ssS'65301'
p2923
(dp2924
g3
F38.6508007
sg4
F-93.21814769999999
ssS'24078'
p2925
(dp2926
g3
F36.7240046
sg4
F-79.9136731
ssS'32720'
p2927
(dp2928
g3
F29.0128283
sg4
F-81.3729372
ssS'75473'
p2929
(dp2930
g3
F33.8197137
sg4
F-95.4882679
ssS'98035'
p2931
(dp2932
g3
F47.38
sg4
F-122.23
ssS'56301'
p2933
(dp2934
g3
F45.4651346
sg4
F-94.2515552
ssS'32193'
p2935
(dp2936
g3
F29.4977536
sg4
F-81.65282189999999
ssS'43943'
p2937
(dp2938
g3
F40.23262829999999
sg4
F-80.7325287
ssS'32058'
p2939
(dp2940
g3
F30.0833148
sg4
F-82.10606829999999
ssS'12198'
p2941
(dp2942
g3
g43
sg44
g43
ssS'12052'
p2943
(dp2944
g3
F42.7584367
sg4
F-73.48872879999999
ssS'76063'
p2945
(dp2946
g3
F32.563183
sg4
F-97.1416926
ssS'12054'
p2947
(dp2948
g3
F42.6076766
sg4
F-73.859549
ssS'52623'
p2949
(dp2950
g3
F40.8497995
sg4
F-91.3469247
ssS'13500'
p2951
(dp2952
g3
F39.3804927
sg4
F-89.8899939
ssS'80651'
p2953
(dp2954
g3
F40.22183160000001
sg4
F-104.8221147
ssS'30338'
p2955
(dp2956
g3
F33.944647
sg4
F-84.3226488
ssS'32960'
p2957
(dp2958
g3
F27.6445079
sg4
F-80.4048306
ssS'39701'
p2959
(dp2960
g3
F33.4521847
sg4
F-88.5371958
ssS'46240'
p2961
(dp2962
g3
F39.9063963
sg4
F-86.1242881
ssS'77713'
p2963
(dp2964
g3
F30.0435239
sg4
F-94.27436279999999
ssS'43016'
p2965
(dp2966
g3
F40.0761455
sg4
F-83.15417959999999
ssS'43015'
p2967
(dp2968
g3
F40.298702
sg4
F-83.06772440000002
ssS'12193'
p2969
(dp2970
g3
g43
sg44
g43
ssS'43545'
p2971
(dp2972
g3
F41.4124518
sg4
F-84.14351359999999
ssS'12322'
p2973
(dp2974
g3
F34.2250801
sg4
F-103.3913438
ssS'77651'
p2975
(dp2976
g3
g43
sg44
g43
ssS'41601'
p2977
(dp2978
g3
F37.6008592
sg4
F-82.7293193
ssS'32750'
p2979
(dp2980
g3
F28.7108495
sg4
F-81.3509416
ssS'43830'
p2981
(dp2982
g3
F40.0538592
sg4
F-82.1604849
ssS'53818'
p2983
(dp2984
g3
F42.7456634
sg4
F-90.4879916
ssS'17050'
p2985
(dp2986
g3
F40.2475923
sg4
F-77.03341790000002
ssS'14568'
p2987
(dp2988
g3
F43.1463411
sg4
F-77.27499639999999
ssS'33916'
p2989
(dp2990
g3
F26.621043
sg4
F-81.8333656
ssS'93405'
p2991
(dp2992
g3
F35.2994482
sg4
F-120.6890055
ssS'98047'
p2993
(dp2994
g3
F47.2611543
sg4
F-122.247529
ssS'60047'
p2995
(dp2996
g3
F42.1970343
sg4
F-88.0935013
ssS'64011'
p2997
(dp2998
g3
F38.968712
sg4
F-94.0797673
ssS'17506'
p2999
(dp3000
g3
F40.1169493
sg4
F-76.05128479999999
ssS'64013'
p3001
(dp3002
g3
F39.0171314
sg4
F-94.277807
ssS'17501'
p3003
(dp3004
g3
F40.1572068
sg4
F-76.19865949999999
ssS'25271'
p3005
(dp3006
g3
F38.794783
sg4
F-81.6692532
ssS'20879'
p3007
(dp3008
g3
F39.1733025
sg4
F-77.1772737
ssS'20875'
p3009
(dp3010
g3
g43
sg44
g43
ssS'17509'
p3011
(dp3012
g3
F39.8973228
sg4
F-76.02758589999999
ssS'56008'
p3013
(dp3014
g3
F47.619668
sg4
F-2.918284
ssS'72364'
p3015
(dp3016
g3
F35.1926203
sg4
F-90.2432307
ssS'78644'
p3017
(dp3018
g3
F29.8663844
sg4
F-97.6765157
ssS'13476'
p3019
(dp3020
g3
g43
sg44
g43
ssS'77710'
p3021
(dp3022
g3
g43
sg44
g43
ssS'21093'
p3023
(dp3024
g3
F39.4452108
sg4
F-76.6528225
ssS'16365'
p3025
(dp3026
g3
F41.8583345
sg4
F-79.1322744
ssS'43064'
p3027
(dp3028
g3
F40.1075508
sg4
F-83.2673692
ssS'29107'
p3029
(dp3030
g3
F33.5119411
sg4
F-81.1306391
ssS'76711'
p3031
(dp3032
g3
F31.5140575
sg4
F-97.15209259999999
ssS'80255'
p3033
(dp3034
g3
F50.2360622
sg4
F24.6451451
ssS'36278'
p3035
(dp3036
g3
F33.3361216
sg4
F-85.5406209
ssS'42301'
p3037
(dp3038
g3
F37.7327263
sg4
F-87.1821709
ssS'32413'
p3039
(dp3040
g3
F30.2097667
sg4
F-85.8556808
ssS'70022'
p3041
(dp3042
g3
F41.53562
sg4
F-83.4794707
ssS'55806'
p3043
(dp3044
g3
F46.7619249
sg4
F-92.13132499999999
ssS'85378'
p3045
(dp3046
g3
F33.6378188
sg4
F-112.3158945
ssS'98134'
p3047
(dp3048
g3
F47.583863
sg4
F-122.3406748
ssS'67505'
p3049
(dp3050
g3
F38.032412
sg4
F-97.94294210000001
ssS'83338'
p3051
(dp3052
g3
F42.7331019
sg4
F-114.4050709
ssS'81650'
p3053
(dp3054
g3
F39.8864774
sg4
F-108.3326648
ssS'36037'
p3055
(dp3056
g3
F31.7205259
sg4
F-86.6207943
ssS'32456'
p3057
(dp3058
g3
g43
sg44
g43
ssS'85274'
p3059
(dp3060
g3
F33.4074826
sg4
F-111.8841054
ssS'97366'
p3061
(dp3062
g3
F44.5772172
sg4
F-124.053674
ssS'81301'
p3063
(dp3064
g3
F37.4951422
sg4
F-107.811
ssS'10593'
p3065
(dp3066
g3
F47.870701
sg4
F17.2145259
ssS'81303'
p3067
(dp3068
g3
F37.1246126
sg4
F-107.9294815
ssS'22440'
p3069
(dp3070
g3
F48.4943503
sg4
F-2.8168881
ssS'20670'
p3071
(dp3072
g3
F38.2890465
sg4
F-76.4215988
ssS'60620'
p3073
(dp3074
g3
F41.7470143
sg4
F-87.6679765
ssS'97411'
p3075
(dp3076
g3
F43.0947438
sg4
F-124.3639663
ssS'20177'
p3077
(dp3078
g3
F39.13
sg4
F-77.5699999
ssS'54452'
p3079
(dp3080
g3
F45.1865855
sg4
F-89.73628099999999
ssS'20175'
p3081
(dp3082
g3
F39.0488574
sg4
F-77.58486649999999
ssS'67735'
p3083
(dp3084
g3
F39.29821889999999
sg4
F-101.7979613
ssS'54455'
p3085
(dp3086
g3
F44.73740069999999
sg4
F-89.5874819
ssS'64064'
p3087
(dp3088
g3
F38.9791799
sg4
F-94.3667907
ssS'59602'
p3089
(dp3090
g3
F46.7815672
sg4
F-111.9205455
ssS'21277'
p3091
(dp3092
g3
F47.52646900000001
sg4
F5.370846999999999
ssS'38813'
p3093
(dp3094
g3
F49.7778938
sg4
F35.0761504
ssS'68138'
p3095
(dp3096
g3
F41.1474694
sg4
F-96.1420947
ssS'43358'
p3097
(dp3098
g3
F40.4334694
sg4
F-83.528342
ssS'17003'
p3099
(dp3100
g3
F40.3548206
sg4
F-76.5719414
ssS'88103'
p3101
(dp3102
g3
F34.378885
sg4
F-103.3183038
ssS'99252'
p3103
(dp3104
g3
F47.674215
sg4
F-117.3884186
ssS'17007'
p3105
(dp3106
g3
F40.1258705
sg4
F-77.1139984
ssS'84660'
p3107
(dp3108
g3
F40.1319937
sg4
F-111.689921
ssS'32025'
p3109
(dp3110
g3
F30.111156
sg4
F-82.5834947
ssS'74301'
p3111
(dp3112
g3
F36.70872
sg4
F-95.26844369999999
ssS'67530'
p3113
(dp3114
g3
F38.3423212
sg4
F-98.8142264
ssS'94115'
p3115
(dp3116
g3
F37.7877522
sg4
F-122.4382307
ssS'85019'
p3117
(dp3118
g3
F33.5087094
sg4
F-112.1400408
ssS'46226'
p3119
(dp3120
g3
F39.8420351
sg4
F-86.0427626
ssS'81004'
p3121
(dp3122
g3
F38.040147
sg4
F-104.6821048
ssS'12175'
p3123
(dp3124
g3
g43
sg44
g43
ssS'14430'
p3125
(dp3126
g3
F43.2323419
sg4
F-77.92780789999999
ssS'12170'
p3127
(dp3128
g3
g43
sg44
g43
ssS'46220'
p3129
(dp3130
g3
F39.8646455
sg4
F-86.1039189
ssS'64735'
p3131
(dp3132
g3
F38.3820458
sg4
F-93.7841503
ssS'53959'
p3133
(dp3134
g3
F43.5414652
sg4
F-89.9813445
ssS'36804'
p3135
(dp3136
g3
F32.564021
sg4
F-85.3342973
ssS'32666'
p3137
(dp3138
g3
F29.7198046
sg4
F-81.986206
ssS'80537'
p3139
(dp3140
g3
F40.372134
sg4
F-105.1960795
ssS'50131'
p3141
(dp3142
g3
F41.68061
sg4
F-93.72320049999999
ssS'53225'
p3143
(dp3144
g3
F43.1095503
sg4
F-88.0411993
ssS'53224'
p3145
(dp3146
g3
F43.14831830000001
sg4
F-88.0411993
ssS'90037'
p3147
(dp3148
g3
F34.002058
sg4
F-118.2818967
ssS'48103'
p3149
(dp3150
g3
F42.24758629999999
sg4
F-83.8260884
ssS'48104'
p3151
(dp3152
g3
F42.2660881
sg4
F-83.7146001
ssS'59868'
p3153
(dp3154
g3
g43
sg44
g43
ssS'48106'
p3155
(dp3156
g3
F42.2721528
sg4
F-83.7754758
ssS'59718'
p3157
(dp3158
g3
F45.6395115
sg4
F-111.1093053
ssS'44113'
p3159
(dp3160
g3
F41.4857101
sg4
F-81.69663059999999
ssS'59864'
p3161
(dp3162
g3
F47.5195608
sg4
F-114.1602087
ssS'45053'
p3163
(dp3164
g3
F39.3495768
sg4
F-84.79420909999999
ssS'59713'
p3165
(dp3166
g3
F46.675218
sg4
F-112.5414369
ssS'59711'
p3167
(dp3168
g3
F46.10953139999999
sg4
F-113.0212247
ssS'14843'
p3169
(dp3170
g3
F42.3344577
sg4
F-77.67651839999999
ssS'95630'
p3171
(dp3172
g3
F38.668585
sg4
F-121.1481284
ssS'29201'
p3173
(dp3174
g3
F33.9873389
sg4
F-81.0368211
ssS'25705'
p3175
(dp3176
g3
F38.40935899999999
sg4
F-82.3614632
ssS'84302'
p3177
(dp3178
g3
F41.5228536
sg4
F-112.0714835
ssS'68508'
p3179
(dp3180
g3
F40.8298688
sg4
F-96.7012424
ssS'25704'
p3181
(dp3182
g3
F38.3807924
sg4
F-82.48610529999999
ssS'14060'
p3183
(dp3184
g3
F42.4274051
sg4
F-78.3608814
ssS'63129'
p3185
(dp3186
g3
F38.4530404
sg4
F-90.3089777
ssS'44615'
p3187
(dp3188
g3
F40.5697538
sg4
F-81.0312989
ssS'84335'
p3189
(dp3190
g3
F41.8271776
sg4
F-111.8807064
ssS'68008'
p3191
(dp3192
g3
F41.53542160000001
sg4
F-96.17391160000001
ssS'60612'
p3193
(dp3194
g3
F41.8816606
sg4
F-87.6926257
ssS'18801'
p3195
(dp3196
g3
F41.8020128
sg4
F-75.94632399999999
ssS'18969'
p3197
(dp3198
g3
F40.3175407
sg4
F-75.3761952
ssS'60611'
p3199
(dp3200
g3
F41.8925085
sg4
F-87.61616959999999
ssS'68000'
p3201
(dp3202
g3
F3.219355
sg4
F101.7865654
ssS'39706'
p3203
(dp3204
g3
g43
sg44
g43
ssS'68005'
p3205
(dp3206
g3
F41.1596468
sg4
F-95.9092754
ssS'39705'
p3207
(dp3208
g3
F33.5851639
sg4
F-88.4210006
ssS'85656'
p3209
(dp3210
g3
F48.2152976
sg4
F11.9927163
ssS'85127'
p3211
(dp3212
g3
F33.209749
sg4
F-111.687964
ssS'48217'
p3213
(dp3214
g3
F42.2827426
sg4
F-83.1488186
ssS'67105'
p3215
(dp3216
g3
F37.2307458
sg4
F-97.6656625
ssS'12303'
p3217
(dp3218
g3
F42.7552682
sg4
F-73.9242251
ssS'54515'
p3219
(dp3220
g3
F45.5053443
sg4
F-90.4774747
ssS'48197'
p3221
(dp3222
g3
F42.1966292
sg4
F-83.6135572
ssS'77007'
p3223
(dp3224
g3
F29.7765065
sg4
F-95.4201377
ssS'27229'
p3225
(dp3226
g3
F35.2444614
sg4
F-79.80726109999999
ssS'44203'
p3227
(dp3228
g3
F41.0274472
sg4
F-81.63638689999999
ssS'36117'
p3229
(dp3230
g3
F32.3822577
sg4
F-86.1914604
ssS'34144'
p3231
(dp3232
g3
F43.709075
sg4
F3.195023
ssS'54703'
p3233
(dp3234
g3
F44.8594192
sg4
F-91.50150090000001
ssS'56006'
p3235
(dp3236
g3
F44.1599999
sg4
I-94
ssS'54701'
p3237
(dp3238
g3
F44.7470586
sg4
F-91.50150090000001
ssS'60457'
p3239
(dp3240
g3
F41.7253067
sg4
F-87.83041449999999
ssS'30168'
p3241
(dp3242
g3
F33.7779488
sg4
F-84.5746243
ssS'33542'
p3243
(dp3244
g3
F28.2333268
sg4
F-82.17680179999999
ssS'33269'
p3245
(dp3246
g3
F25.9455627
sg4
F-80.2053667
ssS'67547'
p3247
(dp3248
g3
F37.9550665
sg4
F-99.47838159999999
ssS'67546'
p3249
(dp3250
g3
F38.2463541
sg4
F-97.8068851
ssS'84528'
p3251
(dp3252
g3
F39.4246716
sg4
F-111.0698858
ssS'67544'
p3253
(dp3254
g3
F38.53190499999999
sg4
F-98.7921836
ssS'29488'
p3255
(dp3256
g3
F32.8656408
sg4
F-80.6770787
ssS'62206'
p3257
(dp3258
g3
F38.5794331
sg4
F-90.1588618
ssS'62205'
p3259
(dp3260
g3
F38.6057218
sg4
F-90.1167463
ssS'91101'
p3261
(dp3262
g3
F34.1427587
sg4
F-118.1386005
ssS'14619'
p3263
(dp3264
g3
F43.1352111
sg4
F-77.64788519999999
ssS'33126'
p3265
(dp3266
g3
F25.778647
sg4
F-80.2962385
ssS'12590'
p3267
(dp3268
g3
F41.588439
sg4
F-73.9124674
ssS'26385'
p3269
(dp3270
g3
F39.1607264
sg4
F-80.3769999
ssS'14203'
p3271
(dp3272
g3
F42.8667771
sg4
F-78.8750644
ssS'41522'
p3273
(dp3274
g3
F37.3313785
sg4
F-82.4102628
ssS'80906'
p3275
(dp3276
g3
F38.7665005
sg4
F-104.8804893
ssS'14612'
p3277
(dp3278
g3
g43
sg44
g43
ssS'29721'
p3279
(dp3280
g3
F34.7258263
sg4
F-80.7738907
ssS'20197'
p3281
(dp3282
g3
F39.1883159
sg4
F-77.6421577
ssS'20191'
p3283
(dp3284
g3
F38.9302229
sg4
F-77.3439283
ssS'56000'
p3285
(dp3286
g3
F47.6617064
sg4
F-2.7574616
ssS'67062'
p3287
(dp3288
g3
F38.1331638
sg4
F-97.4489531
ssS'21502'
p3289
(dp3290
g3
F39.6570823
sg4
F-78.72494689999999
ssS'29728'
p3291
(dp3292
g3
F34.7684849
sg4
F-80.38813329999999
ssS'56001'
p3293
(dp3294
g3
F44.1223003
sg4
F-93.9674371
ssS'38671'
p3295
(dp3296
g3
F34.9837306
sg4
F-89.99067339999999
ssS'20198'
p3297
(dp3298
g3
F38.8621634
sg4
F-77.7744754
ssS'29330'
p3299
(dp3300
g3
F35.0605809
sg4
F-81.8333656
ssS'38672'
p3301
(dp3302
g3
g43
sg44
g43
ssS'32444'
p3303
(dp3304
g3
g43
sg44
g43
ssS'84301'
p3305
(dp3306
g3
F41.6184911
sg4
F-112.1281179
ssS'13021'
p3307
(dp3308
g3
F42.9024331
sg4
F-76.5719414
ssS'10924'
p3309
(dp3310
g3
F41.3862816
sg4
F-74.347017
ssS'13027'
p3311
(dp3312
g3
g43
sg44
g43
ssS'18247'
p3313
(dp3314
g3
F41.0280856
sg4
F-76.0068478
ssS'44054'
p3315
(dp3316
g3
F41.4790857
sg4
F-82.09518
ssS'80903'
p3317
(dp3318
g3
F38.8413423
sg4
F-104.8162784
ssS'30114'
p3319
(dp3320
g3
g43
sg44
g43
ssS'36608'
p3321
(dp3322
g3
F30.6784935
sg4
F-88.3433623
ssS'01089'
p3323
(dp3324
g3
F42.1249932
sg4
F-72.6505957
ssS'78613'
p3325
(dp3326
g3
F30.5119418
sg4
F-97.8177601
ssS'30027'
p3327
(dp3328
g3
g43
sg44
g43
ssS'78617'
p3329
(dp3330
g3
F30.1471783
sg4
F-97.5897372
ssS'68943'
p3331
(dp3332
g3
F40.0633124
sg4
F-97.8503951
ssS'76431'
p3333
(dp3334
g3
F33.3023727
sg4
F-97.8503951
ssS'76120'
p3335
(dp3336
g3
F32.7660707
sg4
F-97.18441399999999
ssS'40210'
p3337
(dp3338
g3
F38.2357356
sg4
F-85.7820416
ssS'83001'
p3339
(dp3340
g3
F43.4686966
sg4
F-110.6724168
ssS'83002'
p3341
(dp3342
g3
F43.46952410000001
sg4
F-110.7891704
ssS'23502'
p3343
(dp3344
g3
F36.8574869
sg4
F-76.2073525
ssS'33868'
p3345
(dp3346
g3
F28.288056
sg4
F-81.8224362
ssS'50213'
p3347
(dp3348
g3
g43
sg44
g43
ssS'14445'
p3349
(dp3350
g3
F43.1107124
sg4
F-77.4902726
ssS'33860'
p3351
(dp3352
g3
F27.7646765
sg4
F-82.0189155
ssS'28793'
p3353
(dp3354
g3
F35.3528692
sg4
F-82.4384611
ssS'15136'
p3355
(dp3356
g3
F40.4693953
sg4
F-80.11494139999999
ssS'60084'
p3357
(dp3358
g3
F42.2704945
sg4
F-88.1388989
ssS'91423'
p3359
(dp3360
g3
F34.1482691
sg4
F-118.4338345
ssS'14616'
p3361
(dp3362
g3
F43.2306445
sg4
F-77.64788519999999
ssS'50315'
p3363
(dp3364
g3
g43
sg44
g43
ssS'39553'
p3365
(dp3366
g3
F30.4172273
sg4
F-88.64343079999999
ssS'58759'
p3367
(dp3368
g3
F47.88256029999999
sg4
F-101.2880449
ssS'28557'
p3369
(dp3370
g3
F34.7394328
sg4
F-76.745195
ssS'17970'
p3371
(dp3372
g3
F40.7214152
sg4
F-76.19286400000001
ssS'80901'
p3373
(dp3374
g3
F38.8543097
sg4
F-104.7557795
ssS'17972'
p3375
(dp3376
g3
F40.60702089999999
sg4
F-76.20080999999999
ssS'83647'
p3377
(dp3378
g3
F43.13275489999999
sg4
F-115.6912313
ssS'34233'
p3379
(dp3380
g3
F27.2823268
sg4
F-82.4698603
ssS'14564'
p3381
(dp3382
g3
g43
sg44
g43
ssS'83642'
p3383
(dp3384
g3
F43.5644359
sg4
F-116.4034565
ssS'34234'
p3385
(dp3386
g3
F27.3681789
sg4
F-82.54563739999999
ssS'83316'
p3387
(dp3388
g3
F42.6233721
sg4
F-114.8849907
ssS'18740'
p3389
(dp3390
g3
F36.7279494
sg4
F-3.3603044
ssS'29927'
p3391
(dp3392
g3
F32.2425929
sg4
F-81.0533854
ssS'34333'
p3393
(dp3394
g3
F43.490423
sg4
F3.797599
ssS'76053'
p3395
(dp3396
g3
F32.8162802
sg4
F-97.1898025
ssS'83648'
p3397
(dp3398
g3
F43.0231222
sg4
F-115.8712752
ssS'30015'
p3399
(dp3400
g3
F33.5999919
sg4
F-83.8600252
ssS'30014'
p3401
(dp3402
g3
F33.5756821
sg4
F-83.8260884
ssS'67431'
p3403
(dp3404
g3
F38.9637077
sg4
F-97.0283383
ssS'47670'
p3405
(dp3406
g3
F38.3544747
sg4
F-87.55936129999999
ssS'31548'
p3407
(dp3408
g3
F30.7913218
sg4
F-81.71305219999999
ssS'33823'
p3409
(dp3410
g3
F28.0776415
sg4
F-81.8005724
ssS'30013'
p3411
(dp3412
g3
F33.6392536
sg4
F-83.985008
ssS'28307'
p3413
(dp3414
g3
F35.1277336
sg4
F-79.03625439999999
ssS'77339'
p3415
(dp3416
g3
F30.0442264
sg4
F-95.2162283
ssS'81631'
p3417
(dp3418
g3
F39.666374
sg4
F-106.7942405
ssS'67439'
p3419
(dp3420
g3
F38.7594292
sg4
F-98.2431747
ssS'50313'
p3421
(dp3422
g3
F41.6542926
sg4
F-93.61164939999999
ssS'30019'
p3423
(dp3424
g3
F33.9678577
sg4
F-83.8791074
ssS'30018'
p3425
(dp3426
g3
F33.7179009
sg4
F-83.8008883
ssS'50854'
p3427
(dp3428
g3
F40.6804988
sg4
F-94.19234000000002
ssS'40510'
p3429
(dp3430
g3
F38.0765476
sg4
F-84.59557319999999
ssS'44875'
p3431
(dp3432
g3
F40.9073141
sg4
F-82.669947
ssS'20158'
p3433
(dp3434
g3
F39.1292809
sg4
F-77.665066
ssS'30807'
p3435
(dp3436
g3
F33.4520346
sg4
F-82.6467235
ssS'89032'
p3437
(dp3438
g3
F36.2137322
sg4
F-115.1770586
ssS'78247'
p3439
(dp3440
g3
F29.5857075
sg4
F-98.4129396
ssS'89030'
p3441
(dp3442
g3
F36.2144541
sg4
F-115.1221157
ssS'92518'
p3443
(dp3444
g3
F33.888079
sg4
F-117.2734901
ssS'62812'
p3445
(dp3446
g3
F37.9947221
sg4
F-88.9222277
ssS'59047'
p3447
(dp3448
g3
F45.65495749999999
sg4
F-110.5086287
ssS'28705'
p3449
(dp3450
g3
F36.0277763
sg4
F-82.1496049
ssS'92058'
p3451
(dp3452
g3
F33.2773221
sg4
F-117.3381427
ssS'14534'
p3453
(dp3454
g3
F43.0515702
sg4
F-77.53901270000001
ssS'92104'
p3455
(dp3456
g3
F32.7398671
sg4
F-117.1205925
ssS'50320'
p3457
(dp3458
g3
F41.5359175
sg4
F-93.57114659999999
ssS'14532'
p3459
(dp3460
g3
g43
sg44
g43
ssS'39301'
p3461
(dp3462
g3
F32.3029712
sg4
F-88.59517509999999
ssS'30060'
p3463
(dp3464
g3
F33.9488147
sg4
F-84.53794549999999
ssS'28091'
p3465
(dp3466
g3
F34.9944079
sg4
F-79.9416549
ssS'28092'
p3467
(dp3468
g3
F35.4902575
sg4
F-81.27390729999999
ssS'39001'
p3469
(dp3470
g3
F47.072192
sg4
F5.363975
ssS'29152'
p3471
(dp3472
g3
F33.9778445
sg4
F-80.4715866
ssS'34421'
p3473
(dp3474
g3
F29.06
sg4
F-82.06000000000002
ssS'30066'
p3475
(dp3476
g3
g43
sg44
g43
ssS'76537'
p3477
(dp3478
g3
F30.831542
sg4
F-97.63311300000001
ssS'76539'
p3479
(dp3480
g3
F31.0358819
sg4
F-98.0247005
ssS'27610'
p3481
(dp3482
g3
F35.7482425
sg4
F-78.5547283
ssS'72916'
p3483
(dp3484
g3
F35.2910902
sg4
F-94.33596349999999
ssS'77806'
p3485
(dp3486
g3
F30.671701
sg4
F-96.3438274
ssS'28315'
p3487
(dp3488
g3
F35.1146143
sg4
F-79.4366324
ssS'48084'
p3489
(dp3490
g3
F42.5586572
sg4
F-83.18097759999999
ssS'33422'
p3491
(dp3492
g3
F26.7092212
sg4
F-80.1088126
ssS'66053'
p3493
(dp3494
g3
F38.5812063
sg4
F-94.6657027
ssS'31335'
p3495
(dp3496
g3
F42.843734
sg4
F0.540173
ssS'32466'
p3497
(dp3498
g3
g43
sg44
g43
ssS'77485'
p3499
(dp3500
g3
F29.6281996
sg4
F-96.0467429
ssS'92278'
p3501
(dp3502
g3
F34.2327172
sg4
F-116.0560817
ssS'55460'
p3503
(dp3504
g3
F44.9799999
sg4
F-93.25999999999999
ssS'43123'
p3505
(dp3506
g3
F39.8762258
sg4
F-83.05761559999999
ssS'74962'
p3507
(dp3508
g3
F35.5088719
sg4
F-94.9350929
ssS'43229'
p3509
(dp3510
g3
F40.0862602
sg4
F-82.98241209999999
ssS'89103'
p3511
(dp3512
g3
F36.1104125
sg4
F-115.2067011
ssS'77248'
p3513
(dp3514
g3
F29.78979289999999
sg4
F-95.3987113
ssS'60954'
p3515
(dp3516
g3
F41.1562525
sg4
F-87.6383797
ssS'86010'
p3517
(dp3518
g3
g43
sg44
g43
ssS'11232'
p3519
(dp3520
g3
F40.6560436
sg4
F-74.0079781
ssS'43223'
p3521
(dp3522
g3
F39.93153
sg4
F-83.04150779999999
ssS'43224'
p3523
(dp3524
g3
F40.0441439
sg4
F-82.9609096
ssS'34601'
p3525
(dp3526
g3
F28.5970072
sg4
F-82.34518899999999
ssS'72753'
p3527
(dp3528
g3
F35.9460068
sg4
F-94.33596349999999
ssS'24740'
p3529
(dp3530
g3
F37.3212521
sg4
F-81.0533854
ssS'19103'
p3531
(dp3532
g3
F39.9531865
sg4
F-75.1749671
ssS'30947'
p3533
(dp3534
g3
g43
sg44
g43
ssS'12474'
p3535
(dp3536
g3
g43
sg44
g43
ssS'51401'
p3537
(dp3538
g3
F42.01543170000001
sg4
F-94.8520636
ssS'26415'
p3539
(dp3540
g3
F39.2801793
sg4
F-80.9650023
ssS'43314'
p3541
(dp3542
g3
F40.6344769
sg4
F-82.98241209999999
ssS'35808'
p3543
(dp3544
g3
F34.6729904
sg4
F-86.65103289999999
ssS'28777'
p3545
(dp3546
g3
F35.9154579
sg4
F-82.0645536
ssS'59729'
p3547
(dp3548
g3
F45.34904179999999
sg4
F-111.731812
ssS'35801'
p3549
(dp3550
g3
F34.7364493
sg4
F-86.5501654
ssS'74643'
p3551
(dp3552
g3
F36.6706849
sg4
F-97.56805949999999
ssS'75483'
p3553
(dp3554
g3
F33.1398823
sg4
F-95.6007198
ssS'50036'
p3555
(dp3556
g3
F42.0528293
sg4
F-93.86553029999999
ssS'92140'
p3557
(dp3558
g3
F32.7407191
sg4
F-117.2036713
ssS'32608'
p3559
(dp3560
g3
F29.6156734
sg4
F-82.3659168
ssS'32609'
p3561
(dp3562
g3
F29.7935588
sg4
F-82.25832969999999
ssS'32219'
p3563
(dp3564
g3
F30.4312586
sg4
F-81.8005724
ssS'33846'
p3565
(dp3566
g3
F27.9610228
sg4
F-81.8804802
ssS'32214'
p3567
(dp3568
g3
F30.2227842
sg4
F-81.695262
ssS'74048'
p3569
(dp3570
g3
F36.6934304
sg4
F-95.6037465
ssS'72762'
p3571
(dp3572
g3
F36.1675026
sg4
F-94.21283369999999
ssS'30069'
p3573
(dp3574
g3
F33.9171898
sg4
F-84.514354
ssS'32212'
p3575
(dp3576
g3
F30.2114525
sg4
F-81.6747295
ssS'77069'
p3577
(dp3578
g3
F29.991318
sg4
F-95.5249863
ssS'11209'
p3579
(dp3580
g3
F40.6212119
sg4
F-74.03294989999999
ssS'93483'
p3581
(dp3582
g3
F35.12
sg4
F-120.62
ssS'23834'
p3583
(dp3584
g3
F37.2913946
sg4
F-77.3898602
ssS'43310'
p3585
(dp3586
g3
F40.5286085
sg4
F-83.7836403
ssS'38109'
p3587
(dp3588
g3
F35.0277217
sg4
F-90.1401381
ssS'43351'
p3589
(dp3590
g3
F40.8043646
sg4
F-83.2934086
ssS'77060'
p3591
(dp3592
g3
F29.938885
sg4
F-95.39919069999999
ssS'77064'
p3593
(dp3594
g3
F29.9161683
sg4
F-95.5302337
ssS'11480'
p3595
(dp3596
g3
F-6.1953695
sg4
F106.791291
ssS'27107'
p3597
(dp3598
g3
F36.0104644
sg4
F-80.1651854
ssS'67217'
p3599
(dp3600
g3
F37.611052
sg4
F-97.3624598
ssS'27105'
p3601
(dp3602
g3
F36.1568627
sg4
F-80.2432839
ssS'74960'
p3603
(dp3604
g3
F35.7837413
sg4
F-94.6037231
ssS'49003'
p3605
(dp3606
g3
F42.27
sg4
F-85.5699999
ssS'95815'
p3607
(dp3608
g3
F38.5963157
sg4
F-121.4399041
ssS'43701'
p3609
(dp3610
g3
F39.98560690000001
sg4
F-81.909826
ssS'20110'
p3611
(dp3612
g3
F38.76571819999999
sg4
F-77.4811474
ssS'92675'
p3613
(dp3614
g3
F33.5039207
sg4
F-117.5613246
ssS'34237'
p3615
(dp3616
g3
F27.3430762
sg4
F-82.5131717
ssS'32503'
p3617
(dp3618
g3
F30.4580512
sg4
F-87.21703950000001
ssS'49001'
p3619
(dp3620
g3
F42.25936249999999
sg4
F-85.57150150000001
ssS'44202'
p3621
(dp3622
g3
F41.3059538
sg4
F-81.3509416
ssS'35242'
p3623
(dp3624
g3
F33.4165524
sg4
F-86.681253
ssS'77092'
p3625
(dp3626
g3
F29.8265052
sg4
F-95.46729619999999
ssS'98122'
p3627
(dp3628
g3
F47.6087583
sg4
F-122.2964235
ssS'19036'
p3629
(dp3630
g3
F39.9029561
sg4
F-75.291653
ssS'32508'
p3631
(dp3632
g3
F30.355867
sg4
F-87.2866995
ssS'93274'
p3633
(dp3634
g3
F36.1973331
sg4
F-119.3714909
ssS'43357'
p3635
(dp3636
g3
F40.2418854
sg4
F-83.7411631
ssS'24739'
p3637
(dp3638
g3
F37.4445849
sg4
F-80.86545339999999
ssS'32187'
p3639
(dp3640
g3
F29.5775097
sg4
F-81.54867279999999
ssS'26351'
p3641
(dp3642
g3
F38.9280687
sg4
F-80.82116959999999
ssS'32043'
p3643
(dp3644
g3
F29.9456874
sg4
F-81.73494199999999
ssS'25000'
p3645
(dp3646
g3
F34.108139
sg4
F-94.6193718
ssS'32045'
p3647
(dp3648
g3
F43.481735
sg4
F0.406565
ssS'28334'
p3649
(dp3650
g3
F35.2369644
sg4
F-78.52065
ssS'34474'
p3651
(dp3652
g3
F29.1561929
sg4
F-82.2039882
ssS'28715'
p3653
(dp3654
g3
F35.4989049
sg4
F-82.713132
ssS'68501'
p3655
(dp3656
g3
F40.81857960000001
sg4
F-96.7112722
ssS'19555'
p3657
(dp3658
g3
F40.4879331
sg4
F-75.9347113
ssS'44663'
p3659
(dp3660
g3
F40.4602299
sg4
F-81.4498717
ssS'32738'
p3661
(dp3662
g3
g43
sg44
g43
ssS'98021'
p3663
(dp3664
g3
F47.7972338
sg4
F-122.2029132
ssS'12043'
p3665
(dp3666
g3
g43
sg44
g43
ssS'22060'
p3667
(dp3668
g3
F38.7040514
sg4
F-77.1600201
ssS'35412'
p3669
(dp3670
g3
g43
sg44
g43
ssS'77662'
p3671
(dp3672
g3
F30.1671932
sg4
F-94.0082563
ssS'74464'
p3673
(dp3674
g3
F36.031526
sg4
F-94.9350929
ssS'92145'
p3675
(dp3676
g3
F32.8728949
sg4
F-117.1323579
ssS'74446'
p3677
(dp3678
g3
F35.8436341
sg4
F-95.32855049999999
ssS'23454'
p3679
(dp3680
g3
F36.8653194
sg4
F-76.0507949
ssS'43551'
p3681
(dp3682
g3
F41.5214385
sg4
F-83.57096399999999
ssS'97070'
p3683
(dp3684
g3
F45.3018169
sg4
F-122.7751561
ssS'57707'
p3685
(dp3686
g3
F49.146855
sg4
F6.009036
ssS'23904'
p3687
(dp3688
g3
F-23.0019308
sg4
F-44.310644
ssS'61961'
p3689
(dp3690
g3
g43
sg44
g43
ssS'11790'
p3691
(dp3692
g3
F40.8978388
sg4
F-73.1054544
ssS'97078'
p3693
(dp3694
g3
F45.49034
sg4
F-122.880401
ssS'32068'
p3695
(dp3696
g3
F30.0700179
sg4
F-81.8879884
ssS'30344'
p3697
(dp3698
g3
F33.6832181
sg4
F-84.44877199999999
ssS'78239'
p3699
(dp3700
g3
F29.5200978
sg4
F-98.3581344
ssS'25765'
p3701
(dp3702
g3
F34.2013081
sg4
F-118.1713944
ssS'27216'
p3703
(dp3704
g3
F36.03
sg4
F-79.47999999999999
ssS'93555'
p3705
(dp3706
g3
F35.5897118
sg4
F-117.6904167
ssS'75965'
p3707
(dp3708
g3
F31.7145848
sg4
F-94.65536790000002
ssS'10940'
p3709
(dp3710
g3
F41.4334745
sg4
F-74.4760088
ssS'31321'
p3711
(dp3712
g3
g43
sg44
g43
ssS'81147'
p3713
(dp3714
g3
F37.1604318
sg4
F-107.0067031
ssS'93003'
p3715
(dp3716
g3
F34.2985355
sg4
F-119.2204548
ssS'32959'
p3717
(dp3718
g3
F28.444194
sg4
F-80.76371
ssS'12189'
p3719
(dp3720
g3
g43
sg44
g43
ssS'97302'
p3721
(dp3722
g3
F44.9046074
sg4
F-123.0826335
ssS'32035'
p3723
(dp3724
g3
F30.63998819999999
sg4
F-81.4450854
ssS'98092'
p3725
(dp3726
g3
F47.29401439999999
sg4
F-122.134133
ssS'39468'
p3727
(dp3728
g3
F46.524838
sg4
F5.532845
ssS'36260'
p3729
(dp3730
g3
F33.5867783
sg4
F-86.00195149999999
ssS'83815'
p3731
(dp3732
g3
F47.7276369
sg4
F-116.781196
ssS'39431'
p3733
(dp3734
g3
F46.59538800000001
sg4
F5.629818999999999
ssS'32134'
p3735
(dp3736
g3
F29.3988257
sg4
F-81.8224362
ssS'75703'
p3737
(dp3738
g3
F32.2556612
sg4
F-95.3207069
ssS'32137'
p3739
(dp3740
g3
F29.6250683
sg4
F-81.2188355
ssS'32131'
p3741
(dp3742
g3
F29.6709552
sg4
F-81.57061089999999
ssS'80220'
p3743
(dp3744
g3
F39.7316982
sg4
F-104.9213643
ssS'33967'
p3745
(dp3746
g3
F26.4792352
sg4
F-81.81150509999999
ssS'74146'
p3747
(dp3748
g3
F36.0882182
sg4
F-95.8459341
ssS'74145'
p3749
(dp3750
g3
F36.1026614
sg4
F-95.88287509999999
ssS'97303'
p3751
(dp3752
g3
F45.0273275
sg4
F-123.0257492
ssS'85309'
p3753
(dp3754
g3
F33.5414884
sg4
F-112.3755018
ssS'17550'
p3755
(dp3756
g3
F40.0756884
sg4
F-76.5824155
ssS'94293'
p3757
(dp3758
g3
F38.58
sg4
F-121.49
ssS'12078'
p3759
(dp3760
g3
g43
sg44
g43
ssS'16681'
p3761
(dp3762
g3
F40.7980712
sg4
F-78.4255277
ssS'46456'
p3763
(dp3764
g3
F24.0073396
sg4
F38.2269262
ssS'43076'
p3765
(dp3766
g3
F39.8765387
sg4
F-82.4102628
ssS'64155'
p3767
(dp3768
g3
F39.282939
sg4
F-94.5727598
ssS'98144'
p3769
(dp3770
g3
F47.58457569999999
sg4
F-122.303649
ssS'49202'
p3771
(dp3772
g3
F42.2675415
sg4
F-84.406761
ssS'93301'
p3773
(dp3774
g3
F35.3873576
sg4
F-119.0168962
ssS'12180'
p3775
(dp3776
g3
g43
sg44
g43
ssS'97314'
p3777
(dp3778
g3
F44.9661467
sg4
F-123.0074754
ssS'93308'
p3779
(dp3780
g3
F35.5217431
sg4
F-118.9062794
ssS'20601'
p3781
(dp3782
g3
F38.5915927
sg4
F-76.8028933
ssS'67402'
p3783
(dp3784
g3
F38.842906
sg4
F-97.60778549999999
ssS'53718'
p3785
(dp3786
g3
F43.0850514
sg4
F-89.25622390000001
ssS'53715'
p3787
(dp3788
g3
F43.0592056
sg4
F-89.4008958
ssS'48347'
p3789
(dp3790
g3
F42.7227646
sg4
F-83.4186714
ssS'45224'
p3791
(dp3792
g3
F39.2079206
sg4
F-84.5274616
ssS'73145'
p3793
(dp3794
g3
F35.4167014
sg4
F-97.38407289999999
ssS'20164'
p3795
(dp3796
g3
F39.0129178
sg4
F-77.39560039999999
ssS'45220'
p3797
(dp3798
g3
F39.14520570000001
sg4
F-84.5169757
ssS'80913'
p3799
(dp3800
g3
F38.6996005
sg4
F-104.7637619
ssS'33407'
p3801
(dp3802
g3
F26.7619563
sg4
F-80.1037721
ssS'38804'
p3803
(dp3804
g3
F34.2684438
sg4
F-88.6819958
ssS'94124'
p3805
(dp3806
g3
F37.7304167
sg4
F-122.384425
ssS'46255'
p3807
(dp3808
g3
g43
sg44
g43
ssS'38555'
p3809
(dp3810
g3
F35.9186133
sg4
F-84.9609464
ssS'75148'
p3811
(dp3812
g3
F32.1006393
sg4
F-96.0044121
ssS'97755'
p3813
(dp3814
g3
F66.0439939
sg4
F27.01836
ssS'20762'
p3815
(dp3816
g3
F38.8112914
sg4
F-76.8778612
ssS'44212'
p3817
(dp3818
g3
F41.2415922
sg4
F-81.8333656
ssS'17403'
p3819
(dp3820
g3
F39.919617
sg4
F-76.7221082
ssS'75229'
p3821
(dp3822
g3
F32.8958284
sg4
F-96.8726295
ssS'28127'
p3823
(dp3824
g3
F35.4878128
sg4
F-80.1205256
ssS'90632'
p3825
(dp3826
g3
F33.9173739
sg4
F-117.9592152
ssS'32210'
p3827
(dp3828
g3
F30.2775931
sg4
F-81.7239979
ssS'75220'
p3829
(dp3830
g3
F32.8621631
sg4
F-96.8726295
ssS'13317'
p3831
(dp3832
g3
g43
sg44
g43
ssS'33123'
p3833
(dp3834
g3
F45.09117
sg4
F-0.4193239
ssS'60450'
p3835
(dp3836
g3
F41.39066529999999
sg4
F-88.4403883
ssS'84022'
p3837
(dp3838
g3
F40.3054744
sg4
F-112.6675398
ssS'60452'
p3839
(dp3840
g3
F41.6091129
sg4
F-87.74680710000001
ssS'84020'
p3841
(dp3842
g3
F40.4960215
sg4
F-111.8687825
ssS'12143'
p3843
(dp3844
g3
g43
sg44
g43
ssS'82931'
p3845
(dp3846
g3
F41.2690854
sg4
F-110.9662587
ssS'97227'
p3847
(dp3848
g3
F45.5461375
sg4
F-122.6766628
ssS'85009'
p3849
(dp3850
g3
F33.4438042
sg4
F-112.1310986
ssS'97220'
p3851
(dp3852
g3
F45.5517361
sg4
F-122.5522483
ssS'97223'
p3853
(dp3854
g3
F45.4395124
sg4
F-122.7711943
ssS'12144'
p3855
(dp3856
g3
g43
sg44
g43
ssS'37802'
p3857
(dp3858
g3
F35.69
sg4
F-84.02
ssS'46239'
p3859
(dp3860
g3
F39.727167
sg4
F-85.9917437
ssS'20171'
p3861
(dp3862
g3
F38.91469720000001
sg4
F-77.3898602
ssS'85001'
p3863
(dp3864
g3
F33.4499672
sg4
F-112.0702225
ssS'80525'
p3865
(dp3866
g3
F40.5417839
sg4
F-105.044052
ssS'77552'
p3867
(dp3868
g3
F29.2895189
sg4
F-94.83251899999999
ssS'41103'
p3869
(dp3870
g3
F47.723111
sg4
F1.009018
ssS'30044'
p3871
(dp3872
g3
F33.9327331
sg4
F-84.0695961
ssS'90022'
p3873
(dp3874
g3
F34.0238187
sg4
F-118.153228
ssS'64063'
p3875
(dp3876
g3
F38.9116463
sg4
F-94.36165160000002
ssS'45822'
p3877
(dp3878
g3
F40.54767400000001
sg4
F-84.56414699999999
ssS'16878'
p3879
(dp3880
g3
F40.9377766
sg4
F-78.3273245
ssS'59701'
p3881
(dp3882
g3
F46.0600227
sg4
F-112.490614
ssS'11801'
p3883
(dp3884
g3
F40.7621388
sg4
F-73.51818329999999
ssS'33716'
p3885
(dp3886
g3
F27.8756643
sg4
F-82.6537455
ssS'54235'
p3887
(dp3888
g3
F44.8571053
sg4
F-87.3413599
ssS'77084'
p3889
(dp3890
g3
F29.8296506
sg4
F-95.6668306
ssS'19939'
p3891
(dp3892
g3
F38.5734362
sg4
F-75.2128996
ssS'57703'
p3893
(dp3894
g3
F43.9904056
sg4
F-103.035694
ssS'41100'
p3895
(dp3896
g3
F47.71508
sg4
F0.7763599999999999
ssS'96858'
p3897
(dp3898
g3
F21.3455884
sg4
F-157.8838153
ssS'10120'
p3899
(dp3900
g3
g43
sg44
g43
ssS'14056'
p3901
(dp3902
g3
F42.9943373
sg4
F-78.30704700000001
ssS'60623'
p3903
(dp3904
g3
F41.8475982
sg4
F-87.7271123
ssS'78233'
p3905
(dp3906
g3
F29.560052
sg4
F-98.3636131
ssS'49221'
p3907
(dp3908
g3
F41.8851765
sg4
F-84.05902900000001
ssS'78234'
p3909
(dp3910
g3
F29.4542542
sg4
F-98.44309969999999
ssS'78236'
p3911
(dp3912
g3
F29.3887899
sg4
F-98.61057029999999
ssS'83813'
p3913
(dp3914
g3
F48.1023146
sg4
F-116.643785
ssS'98032'
p3915
(dp3916
g3
F47.4116866
sg4
F-122.245159
ssS'41104'
p3917
(dp3918
g3
F47.592887
sg4
F1.453379
ssS'98801'
p3919
(dp3920
g3
F47.3821918
sg4
F-120.3761228
ssS'98802'
p3921
(dp3922
g3
F47.445215
sg4
F-120.1593726
ssS'75033'
p3923
(dp3924
g3
F33.1768215
sg4
F-96.8310802
ssS'48188'
p3925
(dp3926
g3
F42.3047219
sg4
F-83.4819418
ssS'33844'
p3927
(dp3928
g3
F28.064362
sg4
F-81.5815776
ssS'67522'
p3929
(dp3930
g3
F38.1232781
sg4
F-97.76340189999999
ssS'12311'
p3931
(dp3932
g3
g43
sg44
g43
ssS'44210'
p3933
(dp3934
g3
F41.1890793
sg4
F-81.6367721
ssS'33157'
p3935
(dp3936
g3
F25.6085924
sg4
F-80.3380213
ssS'33404'
p3937
(dp3938
g3
F26.7712632
sg4
F-80.0702555
ssS'11933'
p3939
(dp3940
g3
F40.9065698
sg4
F-72.7436046
ssS'54449'
p3941
(dp3942
g3
F44.5876914
sg4
F-90.1869644
ssS'44216'
p3943
(dp3944
g3
F40.9440655
sg4
F-81.5925427
ssS'18407'
p3945
(dp3946
g3
F41.6207126
sg4
F-75.5160235
ssS'71801'
p3947
(dp3948
g3
F33.6095043
sg4
F-93.62178019999999
ssS'54656'
p3949
(dp3950
g3
F43.945742
sg4
F-90.8124215
ssS'33370'
p3951
(dp3952
g3
F44.84034490000001
sg4
F-0.4408037
ssS'86015'
p3953
(dp3954
g3
F35.2279483
sg4
F-111.8270486
ssS'26855'
p3955
(dp3956
g3
g43
sg44
g43
ssS'75903'
p3957
(dp3958
g3
F31.3532443
sg4
F-94.74652809999999
ssS'38701'
p3959
(dp3960
g3
F33.3664005
sg4
F-91.07777229999999
ssS'11707'
p3961
(dp3962
g3
F40.7
sg4
F-73.33
ssS'48164'
p3963
(dp3964
g3
F42.134752
sg4
F-83.38962219999999
ssS'80916'
p3965
(dp3966
g3
F38.8021891
sg4
F-104.7229279
ssS'14608'
p3967
(dp3968
g3
F43.1491054
sg4
F-77.62210910000002
ssS'14609'
p3969
(dp3970
g3
F43.1770344
sg4
F-77.55047789999999
ssS'14606'
p3971
(dp3972
g3
F43.168856
sg4
F-77.6936948
ssS'99687'
p3973
(dp3974
g3
F61.58351320000001
sg4
F-149.4406558
ssS'99686'
p3975
(dp3976
g3
F61.1737303
sg4
F-147.133526
ssS'41537'
p3977
(dp3978
g3
F37.2060708
sg4
F-82.6159271
ssS'14600'
p3979
(dp3980
g3
F49.3955122
sg4
F0.2509089
ssS'83251'
p3981
(dp3982
g3
F43.9031049
sg4
F-113.7590804
ssS'27420'
p3983
(dp3984
g3
F36.0726938
sg4
F-79.7903032
ssS'29730'
p3985
(dp3986
g3
F34.9037259
sg4
F-81.0092062
ssS'76702'
p3987
(dp3988
g3
F31.509928
sg4
F-97.1861821
ssS'83255'
p3989
(dp3990
g3
F43.7098309
sg4
F-113.4144214
ssS'78150'
p3991
(dp3992
g3
F29.5385377
sg4
F-98.2821589
ssS'20180'
p3993
(dp3994
g3
F39.2587484
sg4
F-77.6307018
ssS'80912'
p3995
(dp3996
g3
F38.8036632
sg4
F-104.5243699
ssS'67152'
p3997
(dp3998
g3
F37.2799199
sg4
F-97.394882
ssS'50007'
p3999
(dp4000
g3
F41.8085961
sg4
F-93.6065848
ssS'46176'
p4001
(dp4002
g3
g43
sg44
g43
ssS'94451'
p4003
(dp4004
g3
F47.128131
sg4
F-123.8122692
ssS'33301'
p4005
(dp4006
g3
F26.1242719
sg4
F-80.128901
ssS'33302'
p4007
(dp4008
g3
F26.1193363
sg4
F-80.1290801
ssS'13039'
p4009
(dp4010
g3
F43.1758248
sg4
F-76.07399989999999
ssS'84601'
p4011
(dp4012
g3
F40.2128559
sg4
F-111.7256936
ssS'37723'
p4013
(dp4014
g3
F35.987992
sg4
F-84.8046446
ssS'13037'
p4015
(dp4016
g3
g43
sg44
g43
ssS'44109'
p4017
(dp4018
g3
F41.4513221
sg4
F-81.7021049
ssS'13032'
p4019
(dp4020
g3
F43.0808792
sg4
F-75.754806
ssS'43068'
p4021
(dp4022
g3
F39.9518394
sg4
F-82.7886395
ssS'59904'
p4023
(dp4024
g3
F48.08
sg4
F-113.73
ssS'34292'
p4025
(dp4026
g3
F27.1171731
sg4
F-82.33433749999999
ssS'59457'
p4027
(dp4028
g3
F46.9784182
sg4
F-109.3668454
ssS'30076'
p4029
(dp4030
g3
F34.0567006
sg4
F-84.3436881
ssS'44319'
p4031
(dp4032
g3
F40.9793352
sg4
F-81.52672820000001
ssS'30031'
p4033
(dp4034
g3
F33.7752916
sg4
F-84.30426179999999
ssS'37809'
p4035
(dp4036
g3
F36.1678724
sg4
F-83.01465259999999
ssS'33971'
p4037
(dp4038
g3
F26.6306762
sg4
F-81.69663059999999
ssS'95037'
p4039
(dp4040
g3
F37.2187714
sg4
F-121.5826642
ssS'33975'
p4041
(dp4042
g3
F26.6073587
sg4
F-81.6547611
ssS'89318'
p4043
(dp4044
g3
F39.4391852
sg4
F-114.7855271
ssS'33873'
p4045
(dp4046
g3
F27.5628879
sg4
F-81.7568253
ssS'33979'
p4047
(dp4048
g3
F43.2777986
sg4
F-5.5354816
ssS'44833'
p4049
(dp4050
g3
F40.7140659
sg4
F-82.79941939999999
ssS'28786'
p4051
(dp4052
g3
F35.4731561
sg4
F-83.01465259999999
ssS'67203'
p4053
(dp4054
g3
F37.7006858
sg4
F-97.36786239999999
ssS'47710'
p4055
(dp4056
g3
F38.0223462
sg4
F-87.5741877
ssS'24188'
p4057
(dp4058
g3
F45.126796
sg4
F0.9840559999999999
ssS'85063'
p4059
(dp4060
g3
F33.5
sg4
F-112.17
ssS'28547'
p4061
(dp4062
g3
F34.651702
sg4
F-77.3439283
ssS'38016'
p4063
(dp4064
g3
F35.1816448
sg4
F-89.7661527
ssS'28542'
p4065
(dp4066
g3
g43
sg44
g43
ssS'35010'
p4067
(dp4068
g3
F32.94464350000001
sg4
F-85.9100089
ssS'28540'
p4069
(dp4070
g3
F34.7216995
sg4
F-77.4931403
ssS'99619'
p4071
(dp4072
g3
F57.41999999999999
sg4
F-153.53
ssS'67554'
p4073
(dp4074
g3
F38.3870724
sg4
F-98.19942759999999
ssS'34410'
p4075
(dp4076
g3
F43.2726783
sg4
F3.2885455
ssS'78045'
p4077
(dp4078
g3
F27.8186842
sg4
F-99.6786894
ssS'30274'
p4079
(dp4080
g3
F33.5528023
sg4
F-84.4015075
ssS'67552'
p4081
(dp4082
g3
F37.82736750000001
sg4
F-99.23421959999999
ssS'67125'
p4083
(dp4084
g3
F48.359674
sg4
F7.464381
ssS'31160'
p4085
(dp4086
g3
F43.694109
sg4
F1.269206
ssS'30376'
p4087
(dp4088
g3
g43
sg44
g43
ssS'33578'
p4089
(dp4090
g3
F27.8585758
sg4
F-82.33976349999999
ssS'89024'
p4091
(dp4092
g3
F36.7798395
sg4
F-114.0078903
ssS'30004'
p4093
(dp4094
g3
F34.17630630000001
sg4
F-84.2910759
ssS'30005'
p4095
(dp4096
g3
F34.0952227
sg4
F-84.21734029999999
ssS'89020'
p4097
(dp4098
g3
F36.5327457
sg4
F-116.4665975
ssS'77327'
p4099
(dp4100
g3
F30.2999848
sg4
F-94.8520636
ssS'12866'
p4101
(dp4102
g3
F43.0964412
sg4
F-73.7242486
ssS'55106'
p4103
(dp4104
g3
F44.9687549
sg4
F-93.0485951
ssS'23529'
p4105
(dp4106
g3
g43
sg44
g43
ssS'72602'
p4107
(dp4108
g3
F36.2299999
sg4
F-93.11
ssS'47660'
p4109
(dp4110
g3
F38.3071795
sg4
F-87.32149079999999
ssS'30008'
p4111
(dp4112
g3
F33.8955185
sg4
F-84.5903367
ssS'76559'
p4113
(dp4114
g3
F31.0777284
sg4
F-97.6168439
ssS'59425'
p4115
(dp4116
g3
F48.1798805
sg4
F-111.9266797
ssS'59427'
p4117
(dp4118
g3
F48.6628747
sg4
F-112.6474826
ssS'72199'
p4119
(dp4120
g3
F34.84687770000001
sg4
F-92.2679632
ssS'59421'
p4121
(dp4122
g3
F47.1929252
sg4
F-111.6969892
ssS'49651'
p4123
(dp4124
g3
F44.4096844
sg4
F-85.14793639999999
ssS'48346'
p4125
(dp4126
g3
F42.7244204
sg4
F-83.4323375
ssS'43750'
p4127
(dp4128
g3
F39.99909
sg4
F-81.50690999999999
ssS'48906'
p4129
(dp4130
g3
F42.7842327
sg4
F-84.5746243
ssS'83254'
p4131
(dp4132
g3
F42.3220004
sg4
F-111.2976263
ssS'92118'
p4133
(dp4134
g3
F32.6920499
sg4
F-117.1911749
ssS'58504'
p4135
(dp4136
g3
F46.7359015
sg4
F-100.6637567
ssS'14424'
p4137
(dp4138
g3
F42.8343683
sg4
F-77.3094674
ssS'84058'
p4139
(dp4140
g3
F40.2814786
sg4
F-111.7733902
ssS'72923'
p4141
(dp4142
g3
F35.3307196
sg4
F-94.3000211
ssS'28301'
p4143
(dp4144
g3
F35.06375209999999
sg4
F-78.8722341
ssS'28269'
p4145
(dp4146
g3
F35.3352529
sg4
F-80.7990185
ssS'28303'
p4147
(dp4148
g3
F35.0938365
sg4
F-78.9627624
ssS'86600'
p4149
(dp4150
g3
F46.4584912
sg4
F0.0982475
ssS'67864'
p4151
(dp4152
g3
F37.1466313
sg4
F-100.3048897
ssS'56387'
p4153
(dp4154
g3
F45.5124658
sg4
F-94.2480903
ssS'39335'
p4155
(dp4156
g3
F32.5509748
sg4
F-88.49849909999999
ssS'14546'
p4157
(dp4158
g3
F43.0383054
sg4
F-77.76809519999999
ssS'38128'
p4159
(dp4160
g3
F35.2258075
sg4
F-89.9159785
ssS'20018'
p4161
(dp4162
g3
g43
sg44
g43
ssS'36362'
p4163
(dp4164
g3
F31.3628814
sg4
F-85.7153754
ssS'76130'
p4165
(dp4166
g3
F32.7299999
sg4
F-97.3199999
ssS'48326'
p4167
(dp4168
g3
F42.6742723
sg4
F-83.2398943
ssS'78761'
p4169
(dp4170
g3
F30.3334594
sg4
F-97.698869
ssS'78760'
p4171
(dp4172
g3
F30.21402599999999
sg4
F-97.7342611
ssS'38120'
p4173
(dp4174
g3
F35.1212908
sg4
F-89.8551818
ssS'30097'
p4175
(dp4176
g3
F34.0488408
sg4
F-84.17516479999999
ssS'30096'
p4177
(dp4178
g3
F33.9812131
sg4
F-84.15406589999999
ssS'38125'
p4179
(dp4180
g3
F35.0276125
sg4
F-89.78491269999999
ssS'66206'
p4181
(dp4182
g3
F38.9538595
sg4
F-94.6192114
ssS'38127'
p4183
(dp4184
g3
F35.2368232
sg4
F-90.0186555
ssS'66063'
p4185
(dp4186
g3
F38.88
sg4
F-94.8199999
ssS'66061'
p4187
(dp4188
g3
F38.9071042
sg4
F-94.8728093
ssS'72335'
p4189
(dp4190
g3
F34.9921836
sg4
F-90.7913227
ssS'66067'
p4191
(dp4192
g3
F38.5766138
sg4
F-95.26844369999999
ssS'13090'
p4193
(dp4194
g3
g43
sg44
g43
ssS'72331'
p4195
(dp4196
g3
F35.2798569
sg4
F-90.46910969999999
ssS'77491'
p4197
(dp4198
g3
F29.76707
sg4
F-95.75156
ssS'31326'
p4199
(dp4200
g3
g43
sg44
g43
ssS'77493'
p4201
(dp4202
g3
F29.8684561
sg4
F-95.8353837
ssS'22603'
p4203
(dp4204
g3
F39.2800675
sg4
F-78.2248291
ssS'22602'
p4205
(dp4206
g3
F39.1616759
sg4
F-78.2703951
ssS'22600'
p4207
(dp4208
g3
F48.1860388
sg4
F-2.7754099
ssS'11322'
p4209
(dp4210
g3
F42.990842
sg4
F2.9544039
ssS'48875'
p4211
(dp4212
g3
F42.8486784
sg4
F-84.9193082
ssS'72682'
p4213
(dp4214
g3
F36.156161
sg4
F-92.728219
ssS'89115'
p4215
(dp4216
g3
F36.3193563
sg4
F-115.0228736
ssS'66845'
p4217
(dp4218
g3
F38.2833421
sg4
F-96.5143087
ssS'23223'
p4219
(dp4220
g3
F37.5621276
sg4
F-77.3668965
ssS'67908'
p4221
(dp4222
g3
g43
sS'status'
p4223
VZERO_RESULTS
p4224
sg44
g43
ssS'65536'
p4225
(dp4226
g3
F37.7364113
sg4
F-92.6586401
ssS'34677'
p4227
(dp4228
g3
F28.0459972
sg4
F-82.6807458
ssS'77403'
p4229
(dp4230
g3
F48.566991
sg4
F3.322872
ssS'50536'
p4231
(dp4232
g3
F43.1177101
sg4
F-94.6863782
ssS'76098'
p4233
(dp4234
g3
F32.89
sg4
F-97.53999999999999
ssS'15061'
p4235
(dp4236
g3
F40.6804958
sg4
F-80.2878794
ssS'45750'
p4237
(dp4238
g3
F39.4404583
sg4
F-81.4498717
ssS'87410'
p4239
(dp4240
g3
F36.8995665
sg4
F-107.9057813
ssS'39209'
p4241
(dp4242
g3
F32.4124147
sg4
F-90.2901815
ssS'39208'
p4243
(dp4244
g3
F32.2540172
sg4
F-90.08402149999999
ssS'66441'
p4245
(dp4246
g3
F38.9934413
sg4
F-96.8779926
ssS'35075'
p4247
(dp4248
g3
F48.378691
sg4
F-1.462094
ssS'66442'
p4249
(dp4250
g3
F39.0924703
sg4
F-96.7815237
ssS'66113'
p4251
(dp4252
g3
F39.1188361
sg4
F-94.762616
ssS'66111'
p4253
(dp4254
g3
F39.0870168
sg4
F-94.8002333
ssS'28601'
p4255
(dp4256
g3
F35.7655407
sg4
F-81.32893969999999
ssS'80029'
p4257
(dp4258
g3
F50.128144
sg4
F1.61634
ssS'50021'
p4259
(dp4260
g3
F41.71527589999999
sg4
F-93.57114659999999
ssS'41031'
p4261
(dp4262
g3
F38.3893068
sg4
F-84.3121264
ssS'40137'
p4263
(dp4264
g3
F43.951547
sg4
F-0.273796
ssS'73000'
p4265
(dp4266
g3
F45.5700276
sg4
F5.929571300000001
ssS'22109'
p4267
(dp4268
g3
F38.93
sg4
F-77.17999999999999
ssS'32204'
p4269
(dp4270
g3
F30.3152434
sg4
F-81.68568080000001
ssS'32203'
p4271
(dp4272
g3
F30.3368463
sg4
F-81.67096459999999
ssS'23459'
p4273
(dp4274
g3
F36.9262849
sg4
F-76.0203323
ssS'33309'
p4275
(dp4276
g3
F26.1889227
sg4
F-80.1763467
ssS'43081'
p4277
(dp4278
g3
F40.1014036
sg4
F-82.89636039999999
ssS'43082'
p4279
(dp4280
g3
F40.16254470000001
sg4
F-82.89636039999999
ssS'19462'
p4281
(dp4282
g3
F40.1110194
sg4
F-75.2887369
ssS'77077'
p4283
(dp4284
g3
F29.7451163
sg4
F-95.61951119999999
ssS'20176'
p4285
(dp4286
g3
F39.2079214
sg4
F-77.53901270000001
ssS'22514'
p4287
(dp4288
g3
F37.9810986
sg4
F-77.1830243
ssS'97427'
p4289
(dp4290
g3
F45.19045
sg4
F33.366867
ssS'21226'
p4291
(dp4292
g3
F39.2101586
sg4
F-76.5603828
ssS'72936'
p4293
(dp4294
g3
F35.2077035
sg4
F-94.21283369999999
ssS'11254'
p4295
(dp4296
g3
F43.199827
sg4
F2.140625
ssS'14414'
p4297
(dp4298
g3
g43
sg44
g43
ssS'56554'
p4299
(dp4300
g3
F46.8750969
sg4
F-96.1273015
ssS'13167'
p4301
(dp4302
g3
g43
sg44
g43
ssS'13031'
p4303
(dp4304
g3
F43.0328479
sg4
F-76.30583279999999
ssS'22214'
p4305
(dp4306
g3
F38.8733813
sg4
F-77.07191619999999
ssS'35252'
p4307
(dp4308
g3
F48.094524
sg4
F-1.298097
ssS'73523'
p4309
(dp4310
g3
F34.6747834
sg4
F-99.2674713
ssS'28110'
p4311
(dp4312
g3
F35.0849752
sg4
F-80.5216184
ssS'32514'
p4313
(dp4314
g3
F30.5327462
sg4
F-87.2120599
ssS'28112'
p4315
(dp4316
g3
F34.9102669
sg4
F-80.5216184
ssS'65039'
p4317
(dp4318
g3
F38.6936742
sg4
F-92.2827384
ssS'19007'
p4319
(dp4320
g3
F40.1101484
sg4
F-74.8624092
ssS'32925'
p4321
(dp4322
g3
F28.2455059
sg4
F-80.621591
ssS'29207'
p4323
(dp4324
g3
F34.0165608
sg4
F-80.9456553
ssS'75412'
p4325
(dp4326
g3
F33.8002807
sg4
F-95.16406049999999
ssS'94210'
p4327
(dp4328
g3
F48.7973138
sg4
F2.5137875
ssS'75410'
p4329
(dp4330
g3
F32.7951914
sg4
F-95.62476699999999
ssS'98393'
p4331
(dp4332
g3
F47.61049430000001
sg4
F-122.6554479
ssS'74802'
p4333
(dp4334
g3
F35.3287459
sg4
F-96.9219543
ssS'32704'
p4335
(dp4336
g3
F28.6920002
sg4
F-81.5093333
ssS'21000'
p4337
(dp4338
g3
F34.082611
sg4
F-94.5365197
ssS'21001'
p4339
(dp4340
g3
F39.5123182
sg4
F-76.18996609999999
ssS'32708'
p4341
(dp4342
g3
F28.6820373
sg4
F-81.26289609999999
ssS'79916'
p4343
(dp4344
g3
F31.818148
sg4
F-106.4140868
ssS'29486'
p4345
(dp4346
g3
F33.0843712
sg4
F-80.110762
ssS'11783'
p4347
(dp4348
g3
F40.65996760000001
sg4
F-73.49462
ssS'12077'
p4349
(dp4350
g3
g43
sg44
g43
ssS'21040'
p4351
(dp4352
g3
F39.4246225
sg4
F-76.30583279999999
ssS'12074'
p4353
(dp4354
g3
g43
sg44
g43
ssS'11788'
p4355
(dp4356
g3
F40.8153846
sg4
F-73.21165839999999
ssS'11091'
p4357
(dp4358
g3
F42.98137000000001
sg4
F2.006934
ssS'97000'
p4359
(dp4360
g3
F3.2701653
sg4
F113.2585674
ssS'97003'
p4361
(dp4362
g3
F45.5096691
sg4
F-122.8799125
ssS'10035'
p4363
(dp4364
g3
F40.794065
sg4
F-73.9271644
ssS'32176'
p4365
(dp4366
g3
F29.2971256
sg4
F-81.0478643
ssS'77471'
p4367
(dp4368
g3
F29.543368
sg4
F-95.8775964
ssS'59901'
p4369
(dp4370
g3
F48.1865701
sg4
F-114.2704101
ssS'43408'
p4371
(dp4372
g3
F41.5636789
sg4
F-83.3622427
ssS'32178'
p4373
(dp4374
g3
F29.647867
sg4
F-81.6401698
ssS'92016'
p4375
(dp4376
g3
F37.4577038
sg4
F13.2894368
ssS'16167'
p4377
(dp4378
g3
F45.681389
sg4
F-0.1739169
ssS'96740'
p4379
(dp4380
g3
F19.7992907
sg4
F-155.9036295
ssS'27205'
p4381
(dp4382
g3
F35.6189762
sg4
F-79.87448359999999
ssS'82601'
p4383
(dp4384
g3
F43.0981345
sg4
F-106.3934777
ssS'75951'
p4385
(dp4386
g3
F30.8792611
sg4
F-94.028678
ssS'75950'
p4387
(dp4388
g3
F24.939786
sg4
F67.0763901
ssS'60616'
p4389
(dp4390
g3
F41.8403395
sg4
F-87.6137011
ssS'93943'
p4391
(dp4392
g3
F36.5964368
sg4
F-121.8740501
ssS'93944'
p4393
(dp4394
g3
F36.6031809
sg4
F-121.9145986
ssS'49507'
p4395
(dp4396
g3
g43
sg44
g43
ssS'30301'
p4397
(dp4398
g3
F33.7600008
sg4
F-84.38999629999999
ssS'53151'
p4399
(dp4400
g3
F42.9746138
sg4
F-88.099845
ssS'49504'
p4401
(dp4402
g3
F42.9880623
sg4
F-85.7153754
ssS'49503'
p4403
(dp4404
g3
F42.9616689
sg4
F-85.6588999
ssS'49053'
p4405
(dp4406
g3
F42.2914097
sg4
F-85.3859519
ssS'32148'
p4407
(dp4408
g3
F29.6102305
sg4
F-81.8879884
ssS'32024'
p4409
(dp4410
g3
F30.0748467
sg4
F-82.7562895
ssS'34264'
p4411
(dp4412
g3
F27.4481909
sg4
F-82.534476
ssS'39305'
p4413
(dp4414
g3
F32.4633755
sg4
F-88.7686382
ssS'21075'
p4415
(dp4416
g3
F39.2112091
sg4
F-76.745195
ssS'32145'
p4417
(dp4418
g3
F29.6718543
sg4
F-81.40591859999999
ssS'32147'
p4419
(dp4420
g3
F29.6157473
sg4
F-81.7979244
ssS'98424'
p4421
(dp4422
g3
F47.2324122
sg4
F-122.3473803
ssS'80234'
p4423
(dp4424
g3
F39.9122468
sg4
F-105.0031457
ssS'80008'
p4425
(dp4426
g3
F50.034602
sg4
F1.616963
ssS'80239'
p4427
(dp4428
g3
F39.8086537
sg4
F-104.8337879
ssS'83335'
p4429
(dp4430
g3
F42.5995875
sg4
F-114.0826912
ssS'44087'
p4431
(dp4432
g3
F41.3125528
sg4
F-81.4388858
ssS'20815'
p4433
(dp4434
g3
F38.9875145
sg4
F-77.0737149
ssS'17364'
p4435
(dp4436
g3
F39.9409007
sg4
F-76.90668289999999
ssS'12788'
p4437
(dp4438
g3
g43
sg44
g43
ssS'26241'
p4439
(dp4440
g3
F38.9139309
sg4
F-79.7848422
ssS'43065'
p4441
(dp4442
g3
F40.1742648
sg4
F-83.0898194
ssS'17360'
p4443
(dp4444
g3
F39.84144149999999
sg4
F-76.745195
ssS'30080'
p4445
(dp4446
g3
F33.8806897
sg4
F-84.5064881
ssS'24916'
p4447
(dp4448
g3
F37.8388374
sg4
F-80.54662290000002
ssS'49020'
p4449
(dp4450
g3
F42.3842588
sg4
F-85.2329868
ssS'30663'
p4451
(dp4452
g3
F33.6200936
sg4
F-83.6029116
ssS'50208'
p4453
(dp4454
g3
F41.6802825
sg4
F-93.05761989999999
ssS'97301'
p4455
(dp4456
g3
F44.9464822
sg4
F-123.0018941
ssS'97306'
p4457
(dp4458
g3
F44.84430760000001
sg4
F-123.0761555
ssS'97307'
p4459
(dp4460
g3
F44.98999999999999
sg4
F-123.03
ssS'26164'
p4461
(dp4462
g3
F39.0054141
sg4
F-81.71305219999999
ssS'81636'
p4463
(dp4464
g3
F39.36
sg4
F-107.91
ssS'12801'
p4465
(dp4466
g3
F43.3163893
sg4
F-73.6477342
ssS'49201'
p4467
(dp4468
g3
F42.3151209
sg4
F-84.375233
ssS'46254'
p4469
(dp4470
g3
F39.8494377
sg4
F-86.26664629999999
ssS'98951'
p4471
(dp4472
g3
F46.4573495
sg4
F-120.5461486
ssS'49204'
p4473
(dp4474
g3
F42.2455803
sg4
F-84.4037029
ssS'47711'
p4475
(dp4476
g3
F38.0059645
sg4
F-87.5494745
ssS'55423'
p4477
(dp4478
g3
F44.8735964
sg4
F-93.2835137
ssS'49208'
p4479
(dp4480
g3
F47.728614
sg4
F-0.7436849999999999
ssS'10737'
p4481
(dp4482
g3
F-33.5550324
sg4
F-70.5718706
ssS'91031'
p4483
(dp4484
g3
F34.12
sg4
F-118.15
ssS'76111'
p4485
(dp4486
g3
F32.7816615
sg4
F-97.30305919999999
ssS'21218'
p4487
(dp4488
g3
F39.3322127
sg4
F-76.6008334
ssS'20141'
p4489
(dp4490
g3
F39.1414768
sg4
F-77.77953699999999
ssS'60618'
p4491
(dp4492
g3
F41.9464283
sg4
F-87.70740889999999
ssS'54153'
p4493
(dp4494
g3
F44.9433307
sg4
F-87.89424509999999
ssS'95407'
p4495
(dp4496
g3
F38.3986068
sg4
F-122.7520139
ssS'95406'
p4497
(dp4498
g3
F38.44
sg4
F-122.71
ssS'20755'
p4499
(dp4500
g3
F39.1089644
sg4
F-76.745195
ssS'20147'
p4501
(dp4502
g3
F39.047958
sg4
F-77.4816693
ssS'32401'
p4503
(dp4504
g3
g43
sg44
g43
ssS'32961'
p4505
(dp4506
g3
F27.69006
sg4
F-80.41268
ssS'85035'
p4507
(dp4508
g3
F33.4688044
sg4
F-112.1966734
ssS'60604'
p4509
(dp4510
g3
F41.87848510000001
sg4
F-87.627893
ssS'29485'
p4511
(dp4512
g3
F32.95172480000001
sg4
F-80.1986649
ssS'32539'
p4513
(dp4514
g3
F30.7793183
sg4
F-86.4794359
ssS'75233'
p4515
(dp4516
g3
F32.7049103
sg4
F-96.8726295
ssS'84032'
p4517
(dp4518
g3
F40.4940545
sg4
F-111.3321974
ssS'97402'
p4519
(dp4520
g3
F44.0431493
sg4
F-123.2259181
ssS'30078'
p4521
(dp4522
g3
F33.8639894
sg4
F-84.0273168
ssS'43615'
p4523
(dp4524
g3
F41.6560291
sg4
F-83.666758
ssS'12094'
p4525
(dp4526
g3
g43
sg44
g43
ssS'80645'
p4527
(dp4528
g3
F40.2520213
sg4
F-104.5888356
ssS'12306'
p4529
(dp4530
g3
g43
sg44
g43
ssS'20850'
p4531
(dp4532
g3
F39.0839994
sg4
F-77.1527813
ssS'45458'
p4533
(dp4534
g3
F39.5978465
sg4
F-84.15406589999999
ssS'43612'
p4535
(dp4536
g3
F41.7084764
sg4
F-83.53900019999999
ssS'80125'
p4537
(dp4538
g3
F39.5069625
sg4
F-105.0557415
ssS'43618'
p4539
(dp4540
g3
F41.6378428
sg4
F-83.370252
ssS'80120'
p4541
(dp4542
g3
F39.5897283
sg4
F-105.0031457
ssS'98278'
p4543
(dp4544
g3
F48.3321731
sg4
F-122.6898122
ssS'90012'
p4545
(dp4546
g3
F34.0653347
sg4
F-118.243891
ssS'10136'
p4547
(dp4548
g3
F48.138602
sg4
F4.535559999999999
ssS'32828'
p4549
(dp4550
g3
g43
sg44
g43
ssS'53204'
p4551
(dp4552
g3
F43.0153807
sg4
F-87.92857769999999
ssS'33465'
p4553
(dp4554
g3
F26.5799999
sg4
F-80.05
ssS'14823'
p4555
(dp4556
g3
g43
sg44
g43
ssS'44275'
p4557
(dp4558
g3
F41.11073590000001
sg4
F-82.10606829999999
ssS'59847'
p4559
(dp4560
g3
F46.7192538
sg4
F-114.5004747
ssS'11953'
p4561
(dp4562
g3
F40.8902916
sg4
F-72.9578676
ssS'66071'
p4563
(dp4564
g3
F38.5945886
sg4
F-94.8520636
ssS'92860'
p4565
(dp4566
g3
F33.9226096
sg4
F-117.5378439
ssS'95713'
p4567
(dp4568
g3
F39.1007512
sg4
F-120.9532041
ssS'68064'
p4569
(dp4570
g3
F41.3666474
sg4
F-96.3438785
ssS'24180'
p4571
(dp4572
g3
F45.602139
sg4
F0.974659
ssS'20109'
p4573
(dp4574
g3
F38.7855623
sg4
F-77.5275463
ssS'68069'
p4575
(dp4576
g3
F41.2490415
sg4
F-96.30134319999999
ssS'68068'
p4577
(dp4578
g3
F41.39781809999999
sg4
F-96.2070717
ssS'20105'
p4579
(dp4580
g3
F38.9370838
sg4
F-77.5963271
ssS'32824'
p4581
(dp4582
g3
F28.3756472
sg4
F-81.36194019999999
ssS'87252'
p4583
(dp4584
g3
F47.6182524
sg4
F38.0131693
ssS'84726'
p4585
(dp4586
g3
F37.8170209
sg4
F-111.6183755
ssS'65014'
p4587
(dp4588
g3
F38.3265347
sg4
F-91.6178011
ssS'33065'
p4589
(dp4590
g3
F26.2706389
sg4
F-80.26001
ssS'75123'
p4591
(dp4592
g3
F32.5882186
sg4
F-96.8570208
ssS'67135'
p4593
(dp4594
g3
F37.9324856
sg4
F-97.4597725
ssS'33069'
p4595
(dp4596
g3
F26.2286939
sg4
F-80.1596041
ssS'75040'
p4597
(dp4598
g3
F32.9368872
sg4
F-96.6317461
ssS'95490'
p4599
(dp4600
g3
g43
sg44
g43
ssS'40004'
p4601
(dp4602
g3
F37.7851587
sg4
F-85.45818589999999
ssS'60632'
p4603
(dp4604
g3
F41.8074687
sg4
F-87.70740889999999
ssS'60633'
p4605
(dp4606
g3
g43
sg44
g43
ssS'45601'
p4607
(dp4608
g3
F39.3145284
sg4
F-82.95015579999999
ssS'85101'
p4609
(dp4610
g3
F46.46737599999999
sg4
F-1.396045
ssS'41240'
p4611
(dp4612
g3
F37.8332442
sg4
F-82.8101975
ssS'92310'
p4613
(dp4614
g3
F35.2682707
sg4
F-116.7142835
ssS'80465'
p4615
(dp4616
g3
F39.5979553
sg4
F-105.2077798
ssS'90714'
p4617
(dp4618
g3
g43
sg44
g43
ssS'33147'
p4619
(dp4620
g3
F25.84791
sg4
F-80.2377078
ssS'32821'
p4621
(dp4622
g3
F28.3887262
sg4
F-81.4773294
ssS'54535'
p4623
(dp4624
g3
F49.084632
sg4
F5.918972999999999
ssS'84043'
p4625
(dp4626
g3
F40.4136016
sg4
F-111.8926303
ssS'30476'
p4627
(dp4628
g3
F47.7044321
sg4
F20.0725677
ssS'59601'
p4629
(dp4630
g3
F46.5570751
sg4
F-112.2285158
ssS'14221'
p4631
(dp4632
g3
g43
sg44
g43
ssS'27596'
p4633
(dp4634
g3
F36.01690809999999
sg4
F-78.44108949999999
ssS'54313'
p4635
(dp4636
g3
F44.59106389999999
sg4
F-88.1096118
ssS'14225'
p4637
(dp4638
g3
F42.9202891
sg4
F-78.7589558
ssS'41501'
p4639
(dp4640
g3
F37.52938450000001
sg4
F-82.5185837
ssS'33361'
p4641
(dp4642
g3
g43
sg44
g43
ssS'44411'
p4643
(dp4644
g3
F41.0426937
sg4
F-81.04234290000001
ssS'44001'
p4645
(dp4646
g3
F41.3983479
sg4
F-82.2250555
ssS'74435'
p4647
(dp4648
g3
F35.5683538
sg4
F-95.0806918
ssS'81637'
p4649
(dp4650
g3
F39.661809
sg4
F-106.9594723
ssS'99026'
p4651
(dp4652
g3
g43
sg44
g43
ssS'24224'
p4653
(dp4654
g3
F36.8537362
sg4
F-82.2800546
ssS'43218'
p4655
(dp4656
g3
F40.0151339
sg4
F-82.9246084
ssS'48404'
p4657
(dp4658
g3
F49.064831
sg4
F25.3817159
ssS'48159'
p4659
(dp4660
g3
F42.0262329
sg4
F-83.5603112
ssS'80907'
p4661
(dp4662
g3
F38.8778926
sg4
F-104.8104424
ssS'32188'
p4663
(dp4664
g3
F43.864165
sg4
F0.559124
ssS'62551'
p4665
(dp4666
g3
g43
sg44
g43
ssS'74432'
p4667
(dp4668
g3
F35.3048061
sg4
F-95.6037465
ssS'78599'
p4669
(dp4670
g3
F26.1916573
sg4
F-97.98653499999999
ssS'67000'
p4671
(dp4672
g3
F48.6019858
sg4
F7.7835217
ssS'98901'
p4673
(dp4674
g3
F46.6140435
sg4
F-120.4454218
ssS'20032'
p4675
(dp4676
g3
F38.8372336
sg4
F-77.01614359999999
ssS'54848'
p4677
(dp4678
g3
F45.4820557
sg4
F-91.1157621
ssS'29703'
p4679
(dp4680
g3
F35.1496982
sg4
F-81.2125307
ssS'32086'
p4681
(dp4682
g3
F29.7580556
sg4
F-81.3179364
ssS'79106'
p4683
(dp4684
g3
F35.2018872
sg4
F-101.8948754
ssS'46914'
p4685
(dp4686
g3
F40.6290161
sg4
F-86.0733498
ssS'18501'
p4687
(dp4688
g3
F41.37
sg4
F-75.68
ssS'76682'
p4689
(dp4690
g3
F31.42452179999999
sg4
F-96.81366419999999
ssS'40120'
p4691
(dp4692
g3
F43.534505
sg4
F-1.148931
ssS'34221'
p4693
(dp4694
g3
F27.6072268
sg4
F-82.5402275
ssS'54220'
p4695
(dp4696
g3
F44.0923096
sg4
F-87.7172616
ssS'54221'
p4697
(dp4698
g3
g43
sg44
g43
ssS'84340'
p4699
(dp4700
g3
F41.3798231
sg4
F-112.0237903
ssS'59750'
p4701
(dp4702
g3
F45.8813076
sg4
F-112.6760459
ssS'76706'
p4703
(dp4704
g3
F31.456042
sg4
F-97.0713572
ssS'13045'
p4705
(dp4706
g3
g43
sg44
g43
ssS'83676'
p4707
(dp4708
g3
F43.6699179
sg4
F-116.9110111
ssS'18040'
p4709
(dp4710
g3
F40.7543808
sg4
F-75.2128996
ssS'54166'
p4711
(dp4712
g3
F44.8044992
sg4
F-88.59517509999999
ssS'83341'
p4713
(dp4714
g3
F42.3485223
sg4
F-114.3719342
ssS'85812'
p4715
(dp4716
g3
F-24.9492695
sg4
F-53.45271779999999
ssS'34284'
p4717
(dp4718
g3
F27.0999424
sg4
F-82.44890219999999
ssS'43655'
p4719
(dp4720
g3
F26.6157762
sg4
F39.5588473
ssS'33840'
p4721
(dp4722
g3
F28.0104675
sg4
F-81.90699
ssS'68964'
p4723
(dp4724
g3
F40.22614189999999
sg4
F-97.8503951
ssS'18660'
p4725
(dp4726
g3
F41.0897507
sg4
F-76.0623979
ssS'83349'
p4727
(dp4728
g3
F43.0919286
sg4
F-114.1493337
ssS'48166'
p4729
(dp4730
g3
F41.9905829
sg4
F-83.2827093
ssS'78674'
p4731
(dp4732
g3
F30.6737554
sg4
F-97.58719649999999
ssS'39530'
p4733
(dp4734
g3
F30.4023298
sg4
F-88.8982666
ssS'33687'
p4735
(dp4736
g3
F28.04
sg4
F-82.39
ssS'94537'
p4737
(dp4738
g3
F37.55
sg4
F-121.97
ssS'81423'
p4739
(dp4740
g3
F37.9811237
sg4
F-108.3801314
ssS'17815'
p4741
(dp4742
g3
F41.0159555
sg4
F-76.4331698
ssS'75247'
p4743
(dp4744
g3
F32.8166692
sg4
F-96.8833562
ssS'59501'
p4745
(dp4746
g3
F48.6947876
sg4
F-109.8709479
ssS'50233'
p4747
(dp4748
g3
F41.6143311
sg4
F-94.2025859
ssS'33688'
p4749
(dp4750
g3
F28.0619403
sg4
F-82.5036379
ssS'58703'
p4751
(dp4752
g3
F48.3566228
sg4
F-101.374255
ssS'98125'
p4753
(dp4754
g3
F47.7170204
sg4
F-122.3009337
ssS'78681'
p4755
(dp4756
g3
F30.5184228
sg4
F-97.70908539999999
ssS'31704'
p4757
(dp4758
g3
F31.5547633
sg4
F-84.06035
ssS'38006'
p4759
(dp4760
g3
F35.6718949
sg4
F-89.1134166
ssS'91406'
p4761
(dp4762
g3
F34.1985119
sg4
F-118.4980744
ssS'91405'
p4763
(dp4764
g3
F34.2037124
sg4
F-118.4571974
ssS'85140'
p4765
(dp4766
g3
F33.2544202
sg4
F-111.5349059
ssS'38002'
p4767
(dp4768
g3
F35.280438
sg4
F-89.7192132
ssS'54479'
p4769
(dp4770
g3
F44.7940364
sg4
F-90.2807868
ssS'30263'
p4771
(dp4772
g3
F33.3786293
sg4
F-84.8984775
ssS'37660'
p4773
(dp4774
g3
F36.5298904
sg4
F-82.5834947
ssS'71037'
p4775
(dp4776
g3
F32.5108266
sg4
F-93.5205641
ssS'33569'
p4777
(dp4778
g3
F27.8383805
sg4
F-82.2909146
ssS'23452'
p4779
(dp4780
g3
F36.849734
sg4
F-76.097201
ssS'54868'
p4781
(dp4782
g3
F45.5495929
sg4
F-91.748972
ssS'76705'
p4783
(dp4784
g3
F31.5923712
sg4
F-97.0713572
ssS'76248'
p4785
(dp4786
g3
F32.9259646
sg4
F-97.2329255
ssS'32501'
p4787
(dp4788
g3
F30.423724
sg4
F-87.2269973
ssS'48173'
p4789
(dp4790
g3
F42.0708162
sg4
F-83.2465794
ssS'83110'
p4791
(dp4792
g3
F42.7241963
sg4
F-110.8552919
ssS'30034'
p4793
(dp4794
g3
F33.6958943
sg4
F-84.238417
ssS'67451'
p4795
(dp4796
g3
F38.7087711
sg4
F-97.1144039
ssS'47610'
p4797
(dp4798
g3
F38.0556739
sg4
F-87.4009165
ssS'31521'
p4799
(dp4800
g3
g43
sg44
g43
ssS'67455'
p4801
(dp4802
g3
F38.9924325
sg4
F-98.1775638
ssS'78708'
p4803
(dp4804
g3
F30.3911673
sg4
F-97.7051165
ssS'76244'
p4805
(dp4806
g3
F32.9458766
sg4
F-97.27607599999999
ssS'72601'
p4807
(dp4808
g3
F36.1807833
sg4
F-93.05761989999999
ssS'80939'
p4809
(dp4810
g3
F38.8819887
sg4
F-104.6791893
ssS'92570'
p4811
(dp4812
g3
F33.7857455
sg4
F-117.2911248
ssS'37861'
p4813
(dp4814
g3
F36.2399811
sg4
F-83.528342
ssS'44950'
p4815
(dp4816
g3
g43
sg44
g43
ssS'75165'
p4817
(dp4818
g3
F32.3782774
sg4
F-96.7708138
ssS'39283'
p4819
(dp4820
g3
F32.3321017
sg4
F-90.1928384
ssS'30003'
p4821
(dp4822
g3
F33.94
sg4
F-84.2099999
ssS'14413'
p4823
(dp4824
g3
F43.2113883
sg4
F-76.9806208
ssS'62007'
p4825
(dp4826
g3
F50.3502409
sg4
F2.653938
ssS'66217'
p4827
(dp4828
g3
F39.0096652
sg4
F-94.7846938
ssS'25844'
p4829
(dp4830
g3
F37.7998421
sg4
F-81.3729372
ssS'63044'
p4831
(dp4832
g3
F38.767401
sg4
F-90.44080369999999
ssS'62003'
p4833
(dp4834
g3
F50.38474100000001
sg4
F2.888258
ssS'66213'
p4835
(dp4836
g3
F38.8984667
sg4
F-94.70188999999999
ssS'50301'
p4837
(dp4838
g3
F41.6
sg4
F-93.61
ssS'28273'
p4839
(dp4840
g3
F35.12905569999999
sg4
F-80.9539475
ssS'14557'
p4841
(dp4842
g3
F43.047067
sg4
F-78.06875900000001
ssS'28277'
p4843
(dp4844
g3
F35.0535496
sg4
F-80.82116959999999
ssS'76140'
p4845
(dp4846
g3
F32.631572
sg4
F-97.27607599999999
ssS'73884'
p4847
(dp4848
g3
F29.9999668
sg4
F42.186899
ssS'12161'
p4849
(dp4850
g3
F42.5336079
sg4
F-73.8470523
ssS'30084'
p4851
(dp4852
g3
F33.8507937
sg4
F-84.21734029999999
ssS'47906'
p4853
(dp4854
g3
F40.4932743
sg4
F-86.96240859999999
ssS'30083'
p4855
(dp4856
g3
F33.7994803
sg4
F-84.1909841
ssS'31146'
p4857
(dp4858
g3
F33.9204386
sg4
F-84.33948370000002
ssS'83202'
p4859
(dp4860
g3
F42.9904057
sg4
F-112.4332314
ssS'47724'
p4861
(dp4862
g3
F38.08
sg4
F-87.53
ssS'72301'
p4863
(dp4864
g3
F35.1377209
sg4
F-90.19633639999999
ssS'47720'
p4865
(dp4866
g3
F38.0606668
sg4
F-87.6383797
ssS'93035'
p4867
(dp4868
g3
F34.1903021
sg4
F-119.2262667
ssS'34785'
p4869
(dp4870
g3
F28.8356269
sg4
F-82.06250519999999
ssS'55441'
p4871
(dp4872
g3
F44.9951298
sg4
F-93.4352207
ssS'55447'
p4873
(dp4874
g3
F44.9932921
sg4
F-93.4959133
ssS'55446'
p4875
(dp4876
g3
F45.0497462
sg4
F-93.4824636
ssS'12304'
p4877
(dp4878
g3
g43
sg44
g43
ssS'48801'
p4879
(dp4880
g3
F43.3789816
sg4
F-84.6688348
ssS'87401'
p4881
(dp4882
g3
F36.7471661
sg4
F-108.214028
ssS'51466'
p4883
(dp4884
g3
F42.2600262
sg4
F-95.1223608
ssS'26501'
p4885
(dp4886
g3
F39.6140631
sg4
F-80.03113640000001
ssS'66854'
p4887
(dp4888
g3
F38.2685186
sg4
F-96.0044121
ssS'53051'
p4889
(dp4890
g3
F43.1397761
sg4
F-88.1096118
ssS'26505'
p4891
(dp4892
g3
F39.6527963
sg4
F-79.9472502
ssS'15010'
p4893
(dp4894
g3
F40.7664977
sg4
F-80.3547286
ssS'95953'
p4895
(dp4896
g3
F39.269055
sg4
F-121.7879244
ssS'30882'
p4897
(dp4898
g3
F-19.8820961
sg4
F-44.0080112
ssS'50010'
p4899
(dp4900
g3
F42.0320531
sg4
F-93.5913939
ssS'39218'
p4901
(dp4902
g3
F32.2255867
sg4
F-90.15418000000001
ssS'95336'
p4903
(dp4904
g3
F37.8403398
sg4
F-121.2053963
ssS'12413'
p4905
(dp4906
g3
g43
sg44
g43
ssS'55044'
p4907
(dp4908
g3
F44.6349165
sg4
F-93.2784825
ssS'55043'
p4909
(dp4910
g3
F44.943356
sg4
F-92.7630471
ssS'39194'
p4911
(dp4912
g3
F32.8523122
sg4
F-90.563609
ssS'83318'
p4913
(dp4914
g3
F42.41769730000001
sg4
F-113.8108805
ssS'35000'
p4915
(dp4916
g3
F48.11734209999999
sg4
F-1.7075198
ssS'38849'
p4917
(dp4918
g3
F34.4681973
sg4
F-88.6819958
ssS'25831'
p4919
(dp4920
g3
F37.94466389999999
sg4
F-80.92077370000001
ssS'34142'
p4921
(dp4922
g3
F26.3017834
sg4
F-81.38393260000001
ssS'31905'
p4923
(dp4924
g3
F32.3656095
sg4
F-84.87763919999999
ssS'28205'
p4925
(dp4926
g3
F35.2263714
sg4
F-80.7990185
ssS'80011'
p4927
(dp4928
g3
F39.7542465
sg4
F-104.7871004
ssS'72949'
p4929
(dp4930
g3
g43
sg44
g43
ss.